
zephyr.elf:     file format elf32-littlearm


Disassembly of section rom_start:

00000000 <_vector_table>:
   0:	80 3b 00 20 a5 57 00 00 a5 b2 00 00 79 57 00 00     .;. .W......yW..
  10:	79 57 00 00 79 57 00 00 79 57 00 00 00 00 00 00     yW..yW..yW......
	...
  2c:	65 54 00 00 79 57 00 00 00 00 00 00 0d 54 00 00     eT..yW.......T..
  3c:	79 57 00 00                                         yW..

00000040 <_irq_vector_table>:
  40:	19 55 00 00 19 55 00 00 19 55 00 00 19 55 00 00     .U...U...U...U..
  50:	19 55 00 00 19 55 00 00 19 55 00 00 19 55 00 00     .U...U...U...U..
  60:	19 55 00 00 19 55 00 00 19 55 00 00 19 55 00 00     .U...U...U...U..
  70:	19 55 00 00 19 55 00 00 19 55 00 00 19 55 00 00     .U...U...U...U..
  80:	19 55 00 00 19 55 00 00 19 55 00 00 19 55 00 00     .U...U...U...U..
  90:	19 55 00 00 19 55 00 00 19 55 00 00 19 55 00 00     .U...U...U...U..
  a0:	19 55 00 00 19 55 00 00 19 55 00 00 19 55 00 00     .U...U...U...U..
  b0:	19 55 00 00 19 55 00 00 19 55 00 00 19 55 00 00     .U...U...U...U..
  c0:	19 55 00 00 19 55 00 00 19 55 00 00 19 55 00 00     .U...U...U...U..
  d0:	19 55 00 00 19 55 00 00 19 55 00 00 19 55 00 00     .U...U...U...U..
  e0:	19 55 00 00 19 55 00 00 19 55 00 00 19 55 00 00     .U...U...U...U..
  f0:	19 55 00 00 19 55 00 00 19 55 00 00 19 55 00 00     .U...U...U...U..

Disassembly of section text:

00000100 <memchr>:
     100:	f001 01ff 	and.w	r1, r1, #255	; 0xff
     104:	2a10      	cmp	r2, #16
     106:	db2b      	blt.n	160 <CONFIG_IDLE_STACK_SIZE+0x20>
     108:	f010 0f07 	tst.w	r0, #7
     10c:	d008      	beq.n	120 <memchr+0x20>
     10e:	f810 3b01 	ldrb.w	r3, [r0], #1
     112:	3a01      	subs	r2, #1
     114:	428b      	cmp	r3, r1
     116:	d02d      	beq.n	174 <CONFIG_SYS_CLOCK_MAX_TIMEOUT_DAYS+0x7>
     118:	f010 0f07 	tst.w	r0, #7
     11c:	b342      	cbz	r2, 170 <CONFIG_SYS_CLOCK_MAX_TIMEOUT_DAYS+0x3>
     11e:	d1f6      	bne.n	10e <memchr+0xe>
     120:	b4f0      	push	{r4, r5, r6, r7}
     122:	ea41 2101 	orr.w	r1, r1, r1, lsl #8
     126:	ea41 4101 	orr.w	r1, r1, r1, lsl #16
     12a:	f022 0407 	bic.w	r4, r2, #7
     12e:	f07f 0700 	mvns.w	r7, #0
     132:	2300      	movs	r3, #0
     134:	e8f0 5602 	ldrd	r5, r6, [r0], #8
     138:	3c08      	subs	r4, #8
     13a:	ea85 0501 	eor.w	r5, r5, r1
     13e:	ea86 0601 	eor.w	r6, r6, r1
     142:	fa85 f547 	uadd8	r5, r5, r7
     146:	faa3 f587 	sel	r5, r3, r7
     14a:	fa86 f647 	uadd8	r6, r6, r7
     14e:	faa5 f687 	sel	r6, r5, r7
     152:	b98e      	cbnz	r6, 178 <CONFIG_SYS_CLOCK_MAX_TIMEOUT_DAYS+0xb>
     154:	d1ee      	bne.n	134 <CONFIG_SHELL_BACKEND_DUMMY_BUF_SIZE+0x8>
     156:	bcf0      	pop	{r4, r5, r6, r7}
     158:	f001 01ff 	and.w	r1, r1, #255	; 0xff
     15c:	f002 0207 	and.w	r2, r2, #7
     160:	b132      	cbz	r2, 170 <CONFIG_SYS_CLOCK_MAX_TIMEOUT_DAYS+0x3>
     162:	f810 3b01 	ldrb.w	r3, [r0], #1
     166:	3a01      	subs	r2, #1
     168:	ea83 0301 	eor.w	r3, r3, r1
     16c:	b113      	cbz	r3, 174 <CONFIG_SYS_CLOCK_MAX_TIMEOUT_DAYS+0x7>
     16e:	d1f8      	bne.n	162 <CONFIG_IDLE_STACK_SIZE+0x22>
     170:	2000      	movs	r0, #0
     172:	4770      	bx	lr
     174:	3801      	subs	r0, #1
     176:	4770      	bx	lr
     178:	2d00      	cmp	r5, #0
     17a:	bf06      	itte	eq
     17c:	4635      	moveq	r5, r6
     17e:	3803      	subeq	r0, #3
     180:	3807      	subne	r0, #7
     182:	f015 0f01 	tst.w	r5, #1
     186:	d107      	bne.n	198 <CONFIG_SYS_CLOCK_MAX_TIMEOUT_DAYS+0x2b>
     188:	3001      	adds	r0, #1
     18a:	f415 7f80 	tst.w	r5, #256	; 0x100
     18e:	bf02      	ittt	eq
     190:	3001      	addeq	r0, #1
     192:	f415 3fc0 	tsteq.w	r5, #98304	; 0x18000
     196:	3001      	addeq	r0, #1
     198:	bcf0      	pop	{r4, r5, r6, r7}
     19a:	3801      	subs	r0, #1
     19c:	4770      	bx	lr
     19e:	bf00      	nop

000001a0 <filter>:
     1a0:	b5d0      	push	{r4, r6, r7, lr}
     1a2:	af02      	add	r7, sp, #8
     1a4:	b084      	sub	sp, #16
     1a6:	2000      	movs	r0, #0
     1a8:	f847 0c0c 	str.w	r0, [r7, #-12]
     1ac:	f847 0c10 	str.w	r0, [r7, #-16]
     1b0:	e7ff      	b.n	1b2 <filter+0x12>
     1b2:	4668      	mov	r0, sp
     1b4:	3808      	subs	r0, #8
     1b6:	4685      	mov	sp, r0
     1b8:	f847 0c14 	str.w	r0, [r7, #-20]
     1bc:	4668      	mov	r0, sp
     1be:	f1a0 0108 	sub.w	r1, r0, #8
     1c2:	468d      	mov	sp, r1
     1c4:	f240 3280 	movw	r2, #896	; 0x380
     1c8:	f2c2 0200 	movt	r2, #8192	; 0x2000
     1cc:	7c51      	ldrb	r1, [r2, #17]
     1ce:	f892 c012 	ldrb.w	ip, [r2, #18]
     1d2:	7cd3      	ldrb	r3, [r2, #19]
     1d4:	7d12      	ldrb	r2, [r2, #20]
     1d6:	0609      	lsls	r1, r1, #24
     1d8:	ea41 410c 	orr.w	r1, r1, ip, lsl #16
     1dc:	ea41 2103 	orr.w	r1, r1, r3, lsl #8
     1e0:	4411      	add	r1, r2
     1e2:	f840 1c08 	str.w	r1, [r0, #-8]
     1e6:	f850 1c08 	ldr.w	r1, [r0, #-8]
     1ea:	f240 30a0 	movw	r0, #928	; 0x3a0
     1ee:	f2c2 0000 	movt	r0, #8192	; 0x2000
     1f2:	6800      	ldr	r0, [r0, #0]
     1f4:	ebb0 2f41 	cmp.w	r0, r1, lsl #9
     1f8:	d806      	bhi.n	208 <CONFIG_SHELL_BACKEND_SERIAL_LOG_MESSAGE_QUEUE_SIZE+0x8>
     1fa:	e7ff      	b.n	1fc <filter+0x5c>
     1fc:	f857 1c14 	ldr.w	r1, [r7, #-20]
     200:	f06f 0015 	mvn.w	r0, #21
     204:	6008      	str	r0, [r1, #0]
     206:	e000      	b.n	20a <CONFIG_SHELL_BACKEND_SERIAL_LOG_MESSAGE_QUEUE_SIZE+0xa>
     208:	e7ff      	b.n	20a <CONFIG_SHELL_BACKEND_SERIAL_LOG_MESSAGE_QUEUE_SIZE+0xa>
     20a:	f857 1c0c 	ldr.w	r1, [r7, #-12]
     20e:	f857 0c10 	ldr.w	r0, [r7, #-16]
     212:	f1a7 0408 	sub.w	r4, r7, #8
     216:	46a5      	mov	sp, r4
     218:	bdd0      	pop	{r4, r6, r7, pc}
	...

0000021c <__aeabi_drsub>:
     21c:	f081 4100 	eor.w	r1, r1, #2147483648	; 0x80000000
     220:	e002      	b.n	228 <__adddf3>
     222:	bf00      	nop

00000224 <__aeabi_dsub>:
     224:	f083 4300 	eor.w	r3, r3, #2147483648	; 0x80000000

00000228 <__adddf3>:
     228:	b530      	push	{r4, r5, lr}
     22a:	ea4f 0441 	mov.w	r4, r1, lsl #1
     22e:	ea4f 0543 	mov.w	r5, r3, lsl #1
     232:	ea94 0f05 	teq	r4, r5
     236:	bf08      	it	eq
     238:	ea90 0f02 	teqeq	r0, r2
     23c:	bf1f      	itttt	ne
     23e:	ea54 0c00 	orrsne.w	ip, r4, r0
     242:	ea55 0c02 	orrsne.w	ip, r5, r2
     246:	ea7f 5c64 	mvnsne.w	ip, r4, asr #21
     24a:	ea7f 5c65 	mvnsne.w	ip, r5, asr #21
     24e:	f000 80e2 	beq.w	416 <CONFIG_FLASH_SIZE+0x16>
     252:	ea4f 5454 	mov.w	r4, r4, lsr #21
     256:	ebd4 5555 	rsbs	r5, r4, r5, lsr #21
     25a:	bfb8      	it	lt
     25c:	426d      	neglt	r5, r5
     25e:	dd0c      	ble.n	27a <__adddf3+0x52>
     260:	442c      	add	r4, r5
     262:	ea80 0202 	eor.w	r2, r0, r2
     266:	ea81 0303 	eor.w	r3, r1, r3
     26a:	ea82 0000 	eor.w	r0, r2, r0
     26e:	ea83 0101 	eor.w	r1, r3, r1
     272:	ea80 0202 	eor.w	r2, r0, r2
     276:	ea81 0303 	eor.w	r3, r1, r3
     27a:	2d36      	cmp	r5, #54	; 0x36
     27c:	bf88      	it	hi
     27e:	bd30      	pophi	{r4, r5, pc}
     280:	f011 4f00 	tst.w	r1, #2147483648	; 0x80000000
     284:	ea4f 3101 	mov.w	r1, r1, lsl #12
     288:	f44f 1c80 	mov.w	ip, #1048576	; 0x100000
     28c:	ea4c 3111 	orr.w	r1, ip, r1, lsr #12
     290:	d002      	beq.n	298 <__adddf3+0x70>
     292:	4240      	negs	r0, r0
     294:	eb61 0141 	sbc.w	r1, r1, r1, lsl #1
     298:	f013 4f00 	tst.w	r3, #2147483648	; 0x80000000
     29c:	ea4f 3303 	mov.w	r3, r3, lsl #12
     2a0:	ea4c 3313 	orr.w	r3, ip, r3, lsr #12
     2a4:	d002      	beq.n	2ac <__adddf3+0x84>
     2a6:	4252      	negs	r2, r2
     2a8:	eb63 0343 	sbc.w	r3, r3, r3, lsl #1
     2ac:	ea94 0f05 	teq	r4, r5
     2b0:	f000 80a7 	beq.w	402 <CONFIG_FLASH_SIZE+0x2>
     2b4:	f1a4 0401 	sub.w	r4, r4, #1
     2b8:	f1d5 0e20 	rsbs	lr, r5, #32
     2bc:	db0d      	blt.n	2da <__data_size+0x6>
     2be:	fa02 fc0e 	lsl.w	ip, r2, lr
     2c2:	fa22 f205 	lsr.w	r2, r2, r5
     2c6:	1880      	adds	r0, r0, r2
     2c8:	f141 0100 	adc.w	r1, r1, #0
     2cc:	fa03 f20e 	lsl.w	r2, r3, lr
     2d0:	1880      	adds	r0, r0, r2
     2d2:	fa43 f305 	asr.w	r3, r3, r5
     2d6:	4159      	adcs	r1, r3
     2d8:	e00e      	b.n	2f8 <__data_size+0x24>
     2da:	f1a5 0520 	sub.w	r5, r5, #32
     2de:	f10e 0e20 	add.w	lr, lr, #32
     2e2:	2a01      	cmp	r2, #1
     2e4:	fa03 fc0e 	lsl.w	ip, r3, lr
     2e8:	bf28      	it	cs
     2ea:	f04c 0c02 	orrcs.w	ip, ip, #2
     2ee:	fa43 f305 	asr.w	r3, r3, r5
     2f2:	18c0      	adds	r0, r0, r3
     2f4:	eb51 71e3 	adcs.w	r1, r1, r3, asr #31
     2f8:	f001 4500 	and.w	r5, r1, #2147483648	; 0x80000000
     2fc:	d507      	bpl.n	30e <__data_size+0x3a>
     2fe:	f04f 0e00 	mov.w	lr, #0
     302:	f1dc 0c00 	rsbs	ip, ip, #0
     306:	eb7e 0000 	sbcs.w	r0, lr, r0
     30a:	eb6e 0101 	sbc.w	r1, lr, r1
     30e:	f5b1 1f80 	cmp.w	r1, #1048576	; 0x100000
     312:	d31b      	bcc.n	34c <__data_size+0x78>
     314:	f5b1 1f00 	cmp.w	r1, #2097152	; 0x200000
     318:	d30c      	bcc.n	334 <__data_size+0x60>
     31a:	0849      	lsrs	r1, r1, #1
     31c:	ea5f 0030 	movs.w	r0, r0, rrx
     320:	ea4f 0c3c 	mov.w	ip, ip, rrx
     324:	f104 0401 	add.w	r4, r4, #1
     328:	ea4f 5244 	mov.w	r2, r4, lsl #21
     32c:	f512 0f80 	cmn.w	r2, #4194304	; 0x400000
     330:	f080 809a 	bcs.w	468 <CONFIG_FLASH_SIZE+0x68>
     334:	f1bc 4f00 	cmp.w	ip, #2147483648	; 0x80000000
     338:	bf08      	it	eq
     33a:	ea5f 0c50 	movseq.w	ip, r0, lsr #1
     33e:	f150 0000 	adcs.w	r0, r0, #0
     342:	eb41 5104 	adc.w	r1, r1, r4, lsl #20
     346:	ea41 0105 	orr.w	r1, r1, r5
     34a:	bd30      	pop	{r4, r5, pc}
     34c:	ea5f 0c4c 	movs.w	ip, ip, lsl #1
     350:	4140      	adcs	r0, r0
     352:	eb41 0101 	adc.w	r1, r1, r1
     356:	3c01      	subs	r4, #1
     358:	bf28      	it	cs
     35a:	f5b1 1f80 	cmpcs.w	r1, #1048576	; 0x100000
     35e:	d2e9      	bcs.n	334 <__data_size+0x60>
     360:	f091 0f00 	teq	r1, #0
     364:	bf04      	itt	eq
     366:	4601      	moveq	r1, r0
     368:	2000      	moveq	r0, #0
     36a:	fab1 f381 	clz	r3, r1
     36e:	bf08      	it	eq
     370:	3320      	addeq	r3, #32
     372:	f1a3 030b 	sub.w	r3, r3, #11
     376:	f1b3 0220 	subs.w	r2, r3, #32
     37a:	da0c      	bge.n	396 <__data_size+0xc2>
     37c:	320c      	adds	r2, #12
     37e:	dd08      	ble.n	392 <__data_size+0xbe>
     380:	f102 0c14 	add.w	ip, r2, #20
     384:	f1c2 020c 	rsb	r2, r2, #12
     388:	fa01 f00c 	lsl.w	r0, r1, ip
     38c:	fa21 f102 	lsr.w	r1, r1, r2
     390:	e00c      	b.n	3ac <__data_size+0xd8>
     392:	f102 0214 	add.w	r2, r2, #20
     396:	bfd8      	it	le
     398:	f1c2 0c20 	rsble	ip, r2, #32
     39c:	fa01 f102 	lsl.w	r1, r1, r2
     3a0:	fa20 fc0c 	lsr.w	ip, r0, ip
     3a4:	bfdc      	itt	le
     3a6:	ea41 010c 	orrle.w	r1, r1, ip
     3aa:	4090      	lslle	r0, r2
     3ac:	1ae4      	subs	r4, r4, r3
     3ae:	bfa2      	ittt	ge
     3b0:	eb01 5104 	addge.w	r1, r1, r4, lsl #20
     3b4:	4329      	orrge	r1, r5
     3b6:	bd30      	popge	{r4, r5, pc}
     3b8:	ea6f 0404 	mvn.w	r4, r4
     3bc:	3c1f      	subs	r4, #31
     3be:	da1c      	bge.n	3fa <CONFIG_HEAP_MEM_POOL_SIZE+0x12>
     3c0:	340c      	adds	r4, #12
     3c2:	dc0e      	bgt.n	3e2 <__data_size+0x10e>
     3c4:	f104 0414 	add.w	r4, r4, #20
     3c8:	f1c4 0220 	rsb	r2, r4, #32
     3cc:	fa20 f004 	lsr.w	r0, r0, r4
     3d0:	fa01 f302 	lsl.w	r3, r1, r2
     3d4:	ea40 0003 	orr.w	r0, r0, r3
     3d8:	fa21 f304 	lsr.w	r3, r1, r4
     3dc:	ea45 0103 	orr.w	r1, r5, r3
     3e0:	bd30      	pop	{r4, r5, pc}
     3e2:	f1c4 040c 	rsb	r4, r4, #12
     3e6:	f1c4 0220 	rsb	r2, r4, #32
     3ea:	fa20 f002 	lsr.w	r0, r0, r2
     3ee:	fa01 f304 	lsl.w	r3, r1, r4
     3f2:	ea40 0003 	orr.w	r0, r0, r3
     3f6:	4629      	mov	r1, r5
     3f8:	bd30      	pop	{r4, r5, pc}
     3fa:	fa21 f004 	lsr.w	r0, r1, r4
     3fe:	4629      	mov	r1, r5
     400:	bd30      	pop	{r4, r5, pc}
     402:	f094 0f00 	teq	r4, #0
     406:	f483 1380 	eor.w	r3, r3, #1048576	; 0x100000
     40a:	bf06      	itte	eq
     40c:	f481 1180 	eoreq.w	r1, r1, #1048576	; 0x100000
     410:	3401      	addeq	r4, #1
     412:	3d01      	subne	r5, #1
     414:	e74e      	b.n	2b4 <__adddf3+0x8c>
     416:	ea7f 5c64 	mvns.w	ip, r4, asr #21
     41a:	bf18      	it	ne
     41c:	ea7f 5c65 	mvnsne.w	ip, r5, asr #21
     420:	d029      	beq.n	476 <CONFIG_FLASH_SIZE+0x76>
     422:	ea94 0f05 	teq	r4, r5
     426:	bf08      	it	eq
     428:	ea90 0f02 	teqeq	r0, r2
     42c:	d005      	beq.n	43a <CONFIG_FLASH_SIZE+0x3a>
     42e:	ea54 0c00 	orrs.w	ip, r4, r0
     432:	bf04      	itt	eq
     434:	4619      	moveq	r1, r3
     436:	4610      	moveq	r0, r2
     438:	bd30      	pop	{r4, r5, pc}
     43a:	ea91 0f03 	teq	r1, r3
     43e:	bf1e      	ittt	ne
     440:	2100      	movne	r1, #0
     442:	2000      	movne	r0, #0
     444:	bd30      	popne	{r4, r5, pc}
     446:	ea5f 5c54 	movs.w	ip, r4, lsr #21
     44a:	d105      	bne.n	458 <CONFIG_FLASH_SIZE+0x58>
     44c:	0040      	lsls	r0, r0, #1
     44e:	4149      	adcs	r1, r1
     450:	bf28      	it	cs
     452:	f041 4100 	orrcs.w	r1, r1, #2147483648	; 0x80000000
     456:	bd30      	pop	{r4, r5, pc}
     458:	f514 0480 	adds.w	r4, r4, #4194304	; 0x400000
     45c:	bf3c      	itt	cc
     45e:	f501 1180 	addcc.w	r1, r1, #1048576	; 0x100000
     462:	bd30      	popcc	{r4, r5, pc}
     464:	f001 4500 	and.w	r5, r1, #2147483648	; 0x80000000
     468:	f045 41fe 	orr.w	r1, r5, #2130706432	; 0x7f000000
     46c:	f441 0170 	orr.w	r1, r1, #15728640	; 0xf00000
     470:	f04f 0000 	mov.w	r0, #0
     474:	bd30      	pop	{r4, r5, pc}
     476:	ea7f 5c64 	mvns.w	ip, r4, asr #21
     47a:	bf1a      	itte	ne
     47c:	4619      	movne	r1, r3
     47e:	4610      	movne	r0, r2
     480:	ea7f 5c65 	mvnseq.w	ip, r5, asr #21
     484:	bf1c      	itt	ne
     486:	460b      	movne	r3, r1
     488:	4602      	movne	r2, r0
     48a:	ea50 3401 	orrs.w	r4, r0, r1, lsl #12
     48e:	bf06      	itte	eq
     490:	ea52 3503 	orrseq.w	r5, r2, r3, lsl #12
     494:	ea91 0f03 	teqeq	r1, r3
     498:	f441 2100 	orrne.w	r1, r1, #524288	; 0x80000
     49c:	bd30      	pop	{r4, r5, pc}
     49e:	bf00      	nop

000004a0 <__aeabi_ui2d>:
     4a0:	f090 0f00 	teq	r0, #0
     4a4:	bf04      	itt	eq
     4a6:	2100      	moveq	r1, #0
     4a8:	4770      	bxeq	lr
     4aa:	b530      	push	{r4, r5, lr}
     4ac:	f44f 6480 	mov.w	r4, #1024	; 0x400
     4b0:	f104 0432 	add.w	r4, r4, #50	; 0x32
     4b4:	f04f 0500 	mov.w	r5, #0
     4b8:	f04f 0100 	mov.w	r1, #0
     4bc:	e750      	b.n	360 <__data_size+0x8c>
     4be:	bf00      	nop

000004c0 <__aeabi_i2d>:
     4c0:	f090 0f00 	teq	r0, #0
     4c4:	bf04      	itt	eq
     4c6:	2100      	moveq	r1, #0
     4c8:	4770      	bxeq	lr
     4ca:	b530      	push	{r4, r5, lr}
     4cc:	f44f 6480 	mov.w	r4, #1024	; 0x400
     4d0:	f104 0432 	add.w	r4, r4, #50	; 0x32
     4d4:	f010 4500 	ands.w	r5, r0, #2147483648	; 0x80000000
     4d8:	bf48      	it	mi
     4da:	4240      	negmi	r0, r0
     4dc:	f04f 0100 	mov.w	r1, #0
     4e0:	e73e      	b.n	360 <__data_size+0x8c>
     4e2:	bf00      	nop

000004e4 <__aeabi_f2d>:
     4e4:	0042      	lsls	r2, r0, #1
     4e6:	ea4f 01e2 	mov.w	r1, r2, asr #3
     4ea:	ea4f 0131 	mov.w	r1, r1, rrx
     4ee:	ea4f 7002 	mov.w	r0, r2, lsl #28
     4f2:	bf1f      	itttt	ne
     4f4:	f012 437f 	andsne.w	r3, r2, #4278190080	; 0xff000000
     4f8:	f093 4f7f 	teqne	r3, #4278190080	; 0xff000000
     4fc:	f081 5160 	eorne.w	r1, r1, #939524096	; 0x38000000
     500:	4770      	bxne	lr
     502:	f032 427f 	bics.w	r2, r2, #4278190080	; 0xff000000
     506:	bf08      	it	eq
     508:	4770      	bxeq	lr
     50a:	f093 4f7f 	teq	r3, #4278190080	; 0xff000000
     50e:	bf04      	itt	eq
     510:	f441 2100 	orreq.w	r1, r1, #524288	; 0x80000
     514:	4770      	bxeq	lr
     516:	b530      	push	{r4, r5, lr}
     518:	f44f 7460 	mov.w	r4, #896	; 0x380
     51c:	f001 4500 	and.w	r5, r1, #2147483648	; 0x80000000
     520:	f021 4100 	bic.w	r1, r1, #2147483648	; 0x80000000
     524:	e71c      	b.n	360 <__data_size+0x8c>
     526:	bf00      	nop

00000528 <__aeabi_ul2d>:
     528:	ea50 0201 	orrs.w	r2, r0, r1
     52c:	bf08      	it	eq
     52e:	4770      	bxeq	lr
     530:	b530      	push	{r4, r5, lr}
     532:	f04f 0500 	mov.w	r5, #0
     536:	e00a      	b.n	54e <__aeabi_l2d+0x16>

00000538 <__aeabi_l2d>:
     538:	ea50 0201 	orrs.w	r2, r0, r1
     53c:	bf08      	it	eq
     53e:	4770      	bxeq	lr
     540:	b530      	push	{r4, r5, lr}
     542:	f011 4500 	ands.w	r5, r1, #2147483648	; 0x80000000
     546:	d502      	bpl.n	54e <__aeabi_l2d+0x16>
     548:	4240      	negs	r0, r0
     54a:	eb61 0141 	sbc.w	r1, r1, r1, lsl #1
     54e:	f44f 6480 	mov.w	r4, #1024	; 0x400
     552:	f104 0432 	add.w	r4, r4, #50	; 0x32
     556:	ea5f 5c91 	movs.w	ip, r1, lsr #22
     55a:	f43f aed8 	beq.w	30e <__data_size+0x3a>
     55e:	f04f 0203 	mov.w	r2, #3
     562:	ea5f 0cdc 	movs.w	ip, ip, lsr #3
     566:	bf18      	it	ne
     568:	3203      	addne	r2, #3
     56a:	ea5f 0cdc 	movs.w	ip, ip, lsr #3
     56e:	bf18      	it	ne
     570:	3203      	addne	r2, #3
     572:	eb02 02dc 	add.w	r2, r2, ip, lsr #3
     576:	f1c2 0320 	rsb	r3, r2, #32
     57a:	fa00 fc03 	lsl.w	ip, r0, r3
     57e:	fa20 f002 	lsr.w	r0, r0, r2
     582:	fa01 fe03 	lsl.w	lr, r1, r3
     586:	ea40 000e 	orr.w	r0, r0, lr
     58a:	fa21 f102 	lsr.w	r1, r1, r2
     58e:	4414      	add	r4, r2
     590:	e6bd      	b.n	30e <__data_size+0x3a>
     592:	bf00      	nop

00000594 <__aeabi_frsub>:
     594:	f080 4000 	eor.w	r0, r0, #2147483648	; 0x80000000
     598:	e002      	b.n	5a0 <__addsf3>
     59a:	bf00      	nop

0000059c <__aeabi_fsub>:
     59c:	f081 4100 	eor.w	r1, r1, #2147483648	; 0x80000000

000005a0 <__addsf3>:
     5a0:	0042      	lsls	r2, r0, #1
     5a2:	bf1f      	itttt	ne
     5a4:	ea5f 0341 	movsne.w	r3, r1, lsl #1
     5a8:	ea92 0f03 	teqne	r2, r3
     5ac:	ea7f 6c22 	mvnsne.w	ip, r2, asr #24
     5b0:	ea7f 6c23 	mvnsne.w	ip, r3, asr #24
     5b4:	d06a      	beq.n	68c <__addsf3+0xec>
     5b6:	ea4f 6212 	mov.w	r2, r2, lsr #24
     5ba:	ebd2 6313 	rsbs	r3, r2, r3, lsr #24
     5be:	bfc1      	itttt	gt
     5c0:	18d2      	addgt	r2, r2, r3
     5c2:	4041      	eorgt	r1, r0
     5c4:	4048      	eorgt	r0, r1
     5c6:	4041      	eorgt	r1, r0
     5c8:	bfb8      	it	lt
     5ca:	425b      	neglt	r3, r3
     5cc:	2b19      	cmp	r3, #25
     5ce:	bf88      	it	hi
     5d0:	4770      	bxhi	lr
     5d2:	f010 4f00 	tst.w	r0, #2147483648	; 0x80000000
     5d6:	f440 0000 	orr.w	r0, r0, #8388608	; 0x800000
     5da:	f020 407f 	bic.w	r0, r0, #4278190080	; 0xff000000
     5de:	bf18      	it	ne
     5e0:	4240      	negne	r0, r0
     5e2:	f011 4f00 	tst.w	r1, #2147483648	; 0x80000000
     5e6:	f441 0100 	orr.w	r1, r1, #8388608	; 0x800000
     5ea:	f021 417f 	bic.w	r1, r1, #4278190080	; 0xff000000
     5ee:	bf18      	it	ne
     5f0:	4249      	negne	r1, r1
     5f2:	ea92 0f03 	teq	r2, r3
     5f6:	d03f      	beq.n	678 <__addsf3+0xd8>
     5f8:	f1a2 0201 	sub.w	r2, r2, #1
     5fc:	fa41 fc03 	asr.w	ip, r1, r3
     600:	eb10 000c 	adds.w	r0, r0, ip
     604:	f1c3 0320 	rsb	r3, r3, #32
     608:	fa01 f103 	lsl.w	r1, r1, r3
     60c:	f000 4300 	and.w	r3, r0, #2147483648	; 0x80000000
     610:	d502      	bpl.n	618 <__addsf3+0x78>
     612:	4249      	negs	r1, r1
     614:	eb60 0040 	sbc.w	r0, r0, r0, lsl #1
     618:	f5b0 0f00 	cmp.w	r0, #8388608	; 0x800000
     61c:	d313      	bcc.n	646 <__addsf3+0xa6>
     61e:	f1b0 7f80 	cmp.w	r0, #16777216	; 0x1000000
     622:	d306      	bcc.n	632 <__addsf3+0x92>
     624:	0840      	lsrs	r0, r0, #1
     626:	ea4f 0131 	mov.w	r1, r1, rrx
     62a:	f102 0201 	add.w	r2, r2, #1
     62e:	2afe      	cmp	r2, #254	; 0xfe
     630:	d251      	bcs.n	6d6 <__addsf3+0x136>
     632:	f1b1 4f00 	cmp.w	r1, #2147483648	; 0x80000000
     636:	eb40 50c2 	adc.w	r0, r0, r2, lsl #23
     63a:	bf08      	it	eq
     63c:	f020 0001 	biceq.w	r0, r0, #1
     640:	ea40 0003 	orr.w	r0, r0, r3
     644:	4770      	bx	lr
     646:	0049      	lsls	r1, r1, #1
     648:	eb40 0000 	adc.w	r0, r0, r0
     64c:	3a01      	subs	r2, #1
     64e:	bf28      	it	cs
     650:	f5b0 0f00 	cmpcs.w	r0, #8388608	; 0x800000
     654:	d2ed      	bcs.n	632 <__addsf3+0x92>
     656:	fab0 fc80 	clz	ip, r0
     65a:	f1ac 0c08 	sub.w	ip, ip, #8
     65e:	ebb2 020c 	subs.w	r2, r2, ip
     662:	fa00 f00c 	lsl.w	r0, r0, ip
     666:	bfaa      	itet	ge
     668:	eb00 50c2 	addge.w	r0, r0, r2, lsl #23
     66c:	4252      	neglt	r2, r2
     66e:	4318      	orrge	r0, r3
     670:	bfbc      	itt	lt
     672:	40d0      	lsrlt	r0, r2
     674:	4318      	orrlt	r0, r3
     676:	4770      	bx	lr
     678:	f092 0f00 	teq	r2, #0
     67c:	f481 0100 	eor.w	r1, r1, #8388608	; 0x800000
     680:	bf06      	itte	eq
     682:	f480 0000 	eoreq.w	r0, r0, #8388608	; 0x800000
     686:	3201      	addeq	r2, #1
     688:	3b01      	subne	r3, #1
     68a:	e7b5      	b.n	5f8 <__addsf3+0x58>
     68c:	ea4f 0341 	mov.w	r3, r1, lsl #1
     690:	ea7f 6c22 	mvns.w	ip, r2, asr #24
     694:	bf18      	it	ne
     696:	ea7f 6c23 	mvnsne.w	ip, r3, asr #24
     69a:	d021      	beq.n	6e0 <__addsf3+0x140>
     69c:	ea92 0f03 	teq	r2, r3
     6a0:	d004      	beq.n	6ac <__addsf3+0x10c>
     6a2:	f092 0f00 	teq	r2, #0
     6a6:	bf08      	it	eq
     6a8:	4608      	moveq	r0, r1
     6aa:	4770      	bx	lr
     6ac:	ea90 0f01 	teq	r0, r1
     6b0:	bf1c      	itt	ne
     6b2:	2000      	movne	r0, #0
     6b4:	4770      	bxne	lr
     6b6:	f012 4f7f 	tst.w	r2, #4278190080	; 0xff000000
     6ba:	d104      	bne.n	6c6 <__addsf3+0x126>
     6bc:	0040      	lsls	r0, r0, #1
     6be:	bf28      	it	cs
     6c0:	f040 4000 	orrcs.w	r0, r0, #2147483648	; 0x80000000
     6c4:	4770      	bx	lr
     6c6:	f112 7200 	adds.w	r2, r2, #33554432	; 0x2000000
     6ca:	bf3c      	itt	cc
     6cc:	f500 0000 	addcc.w	r0, r0, #8388608	; 0x800000
     6d0:	4770      	bxcc	lr
     6d2:	f000 4300 	and.w	r3, r0, #2147483648	; 0x80000000
     6d6:	f043 40fe 	orr.w	r0, r3, #2130706432	; 0x7f000000
     6da:	f440 0000 	orr.w	r0, r0, #8388608	; 0x800000
     6de:	4770      	bx	lr
     6e0:	ea7f 6222 	mvns.w	r2, r2, asr #24
     6e4:	bf16      	itet	ne
     6e6:	4608      	movne	r0, r1
     6e8:	ea7f 6323 	mvnseq.w	r3, r3, asr #24
     6ec:	4601      	movne	r1, r0
     6ee:	0242      	lsls	r2, r0, #9
     6f0:	bf06      	itte	eq
     6f2:	ea5f 2341 	movseq.w	r3, r1, lsl #9
     6f6:	ea90 0f01 	teqeq	r0, r1
     6fa:	f440 0080 	orrne.w	r0, r0, #4194304	; 0x400000
     6fe:	4770      	bx	lr

00000700 <__aeabi_ui2f>:
     700:	f04f 0300 	mov.w	r3, #0
     704:	e004      	b.n	710 <__aeabi_i2f+0x8>
     706:	bf00      	nop

00000708 <__aeabi_i2f>:
     708:	f010 4300 	ands.w	r3, r0, #2147483648	; 0x80000000
     70c:	bf48      	it	mi
     70e:	4240      	negmi	r0, r0
     710:	ea5f 0c00 	movs.w	ip, r0
     714:	bf08      	it	eq
     716:	4770      	bxeq	lr
     718:	f043 4396 	orr.w	r3, r3, #1258291200	; 0x4b000000
     71c:	4601      	mov	r1, r0
     71e:	f04f 0000 	mov.w	r0, #0
     722:	e01c      	b.n	75e <__aeabi_l2f+0x2a>

00000724 <__aeabi_ul2f>:
     724:	ea50 0201 	orrs.w	r2, r0, r1
     728:	bf08      	it	eq
     72a:	4770      	bxeq	lr
     72c:	f04f 0300 	mov.w	r3, #0
     730:	e00a      	b.n	748 <__aeabi_l2f+0x14>
     732:	bf00      	nop

00000734 <__aeabi_l2f>:
     734:	ea50 0201 	orrs.w	r2, r0, r1
     738:	bf08      	it	eq
     73a:	4770      	bxeq	lr
     73c:	f011 4300 	ands.w	r3, r1, #2147483648	; 0x80000000
     740:	d502      	bpl.n	748 <__aeabi_l2f+0x14>
     742:	4240      	negs	r0, r0
     744:	eb61 0141 	sbc.w	r1, r1, r1, lsl #1
     748:	ea5f 0c01 	movs.w	ip, r1
     74c:	bf02      	ittt	eq
     74e:	4684      	moveq	ip, r0
     750:	4601      	moveq	r1, r0
     752:	2000      	moveq	r0, #0
     754:	f043 43b6 	orr.w	r3, r3, #1526726656	; 0x5b000000
     758:	bf08      	it	eq
     75a:	f1a3 5380 	subeq.w	r3, r3, #268435456	; 0x10000000
     75e:	f5a3 0300 	sub.w	r3, r3, #8388608	; 0x800000
     762:	fabc f28c 	clz	r2, ip
     766:	3a08      	subs	r2, #8
     768:	eba3 53c2 	sub.w	r3, r3, r2, lsl #23
     76c:	db10      	blt.n	790 <__aeabi_l2f+0x5c>
     76e:	fa01 fc02 	lsl.w	ip, r1, r2
     772:	4463      	add	r3, ip
     774:	fa00 fc02 	lsl.w	ip, r0, r2
     778:	f1c2 0220 	rsb	r2, r2, #32
     77c:	f1bc 4f00 	cmp.w	ip, #2147483648	; 0x80000000
     780:	fa20 f202 	lsr.w	r2, r0, r2
     784:	eb43 0002 	adc.w	r0, r3, r2
     788:	bf08      	it	eq
     78a:	f020 0001 	biceq.w	r0, r0, #1
     78e:	4770      	bx	lr
     790:	f102 0220 	add.w	r2, r2, #32
     794:	fa01 fc02 	lsl.w	ip, r1, r2
     798:	f1c2 0220 	rsb	r2, r2, #32
     79c:	ea50 004c 	orrs.w	r0, r0, ip, lsl #1
     7a0:	fa21 f202 	lsr.w	r2, r1, r2
     7a4:	eb43 0002 	adc.w	r0, r3, r2
     7a8:	bf08      	it	eq
     7aa:	ea20 70dc 	biceq.w	r0, r0, ip, lsr #31
     7ae:	4770      	bx	lr

000007b0 <__aeabi_fmul>:
     7b0:	f04f 0cff 	mov.w	ip, #255	; 0xff
     7b4:	ea1c 52d0 	ands.w	r2, ip, r0, lsr #23
     7b8:	bf1e      	ittt	ne
     7ba:	ea1c 53d1 	andsne.w	r3, ip, r1, lsr #23
     7be:	ea92 0f0c 	teqne	r2, ip
     7c2:	ea93 0f0c 	teqne	r3, ip
     7c6:	d06f      	beq.n	8a8 <__z_interrupt_stack_SIZEOF+0x68>
     7c8:	441a      	add	r2, r3
     7ca:	ea80 0c01 	eor.w	ip, r0, r1
     7ce:	0240      	lsls	r0, r0, #9
     7d0:	bf18      	it	ne
     7d2:	ea5f 2141 	movsne.w	r1, r1, lsl #9
     7d6:	d01e      	beq.n	816 <CONFIG_ISR_STACK_SIZE+0x16>
     7d8:	f04f 6300 	mov.w	r3, #134217728	; 0x8000000
     7dc:	ea43 1050 	orr.w	r0, r3, r0, lsr #5
     7e0:	ea43 1151 	orr.w	r1, r3, r1, lsr #5
     7e4:	fba0 3101 	umull	r3, r1, r0, r1
     7e8:	f00c 4000 	and.w	r0, ip, #2147483648	; 0x80000000
     7ec:	f5b1 0f00 	cmp.w	r1, #8388608	; 0x800000
     7f0:	bf3e      	ittt	cc
     7f2:	0049      	lslcc	r1, r1, #1
     7f4:	ea41 71d3 	orrcc.w	r1, r1, r3, lsr #31
     7f8:	005b      	lslcc	r3, r3, #1
     7fa:	ea40 0001 	orr.w	r0, r0, r1
     7fe:	f162 027f 	sbc.w	r2, r2, #127	; 0x7f
     802:	2afd      	cmp	r2, #253	; 0xfd
     804:	d81d      	bhi.n	842 <__z_interrupt_stack_SIZEOF+0x2>
     806:	f1b3 4f00 	cmp.w	r3, #2147483648	; 0x80000000
     80a:	eb40 50c2 	adc.w	r0, r0, r2, lsl #23
     80e:	bf08      	it	eq
     810:	f020 0001 	biceq.w	r0, r0, #1
     814:	4770      	bx	lr
     816:	f090 0f00 	teq	r0, #0
     81a:	f00c 4c00 	and.w	ip, ip, #2147483648	; 0x80000000
     81e:	bf08      	it	eq
     820:	0249      	lsleq	r1, r1, #9
     822:	ea4c 2050 	orr.w	r0, ip, r0, lsr #9
     826:	ea40 2051 	orr.w	r0, r0, r1, lsr #9
     82a:	3a7f      	subs	r2, #127	; 0x7f
     82c:	bfc2      	ittt	gt
     82e:	f1d2 03ff 	rsbsgt	r3, r2, #255	; 0xff
     832:	ea40 50c2 	orrgt.w	r0, r0, r2, lsl #23
     836:	4770      	bxgt	lr
     838:	f440 0000 	orr.w	r0, r0, #8388608	; 0x800000
     83c:	f04f 0300 	mov.w	r3, #0
     840:	3a01      	subs	r2, #1
     842:	dc5d      	bgt.n	900 <__z_interrupt_stack_SIZEOF+0xc0>
     844:	f112 0f19 	cmn.w	r2, #25
     848:	bfdc      	itt	le
     84a:	f000 4000 	andle.w	r0, r0, #2147483648	; 0x80000000
     84e:	4770      	bxle	lr
     850:	f1c2 0200 	rsb	r2, r2, #0
     854:	0041      	lsls	r1, r0, #1
     856:	fa21 f102 	lsr.w	r1, r1, r2
     85a:	f1c2 0220 	rsb	r2, r2, #32
     85e:	fa00 fc02 	lsl.w	ip, r0, r2
     862:	ea5f 0031 	movs.w	r0, r1, rrx
     866:	f140 0000 	adc.w	r0, r0, #0
     86a:	ea53 034c 	orrs.w	r3, r3, ip, lsl #1
     86e:	bf08      	it	eq
     870:	ea20 70dc 	biceq.w	r0, r0, ip, lsr #31
     874:	4770      	bx	lr
     876:	f092 0f00 	teq	r2, #0
     87a:	f000 4c00 	and.w	ip, r0, #2147483648	; 0x80000000
     87e:	bf02      	ittt	eq
     880:	0040      	lsleq	r0, r0, #1
     882:	f410 0f00 	tsteq.w	r0, #8388608	; 0x800000
     886:	3a01      	subeq	r2, #1
     888:	d0f9      	beq.n	87e <__z_interrupt_stack_SIZEOF+0x3e>
     88a:	ea40 000c 	orr.w	r0, r0, ip
     88e:	f093 0f00 	teq	r3, #0
     892:	f001 4c00 	and.w	ip, r1, #2147483648	; 0x80000000
     896:	bf02      	ittt	eq
     898:	0049      	lsleq	r1, r1, #1
     89a:	f411 0f00 	tsteq.w	r1, #8388608	; 0x800000
     89e:	3b01      	subeq	r3, #1
     8a0:	d0f9      	beq.n	896 <__z_interrupt_stack_SIZEOF+0x56>
     8a2:	ea41 010c 	orr.w	r1, r1, ip
     8a6:	e78f      	b.n	7c8 <__aeabi_fmul+0x18>
     8a8:	ea0c 53d1 	and.w	r3, ip, r1, lsr #23
     8ac:	ea92 0f0c 	teq	r2, ip
     8b0:	bf18      	it	ne
     8b2:	ea93 0f0c 	teqne	r3, ip
     8b6:	d00a      	beq.n	8ce <__z_interrupt_stack_SIZEOF+0x8e>
     8b8:	f030 4c00 	bics.w	ip, r0, #2147483648	; 0x80000000
     8bc:	bf18      	it	ne
     8be:	f031 4c00 	bicsne.w	ip, r1, #2147483648	; 0x80000000
     8c2:	d1d8      	bne.n	876 <__z_interrupt_stack_SIZEOF+0x36>
     8c4:	ea80 0001 	eor.w	r0, r0, r1
     8c8:	f000 4000 	and.w	r0, r0, #2147483648	; 0x80000000
     8cc:	4770      	bx	lr
     8ce:	f090 0f00 	teq	r0, #0
     8d2:	bf17      	itett	ne
     8d4:	f090 4f00 	teqne	r0, #2147483648	; 0x80000000
     8d8:	4608      	moveq	r0, r1
     8da:	f091 0f00 	teqne	r1, #0
     8de:	f091 4f00 	teqne	r1, #2147483648	; 0x80000000
     8e2:	d014      	beq.n	90e <__z_interrupt_stack_SIZEOF+0xce>
     8e4:	ea92 0f0c 	teq	r2, ip
     8e8:	d101      	bne.n	8ee <__z_interrupt_stack_SIZEOF+0xae>
     8ea:	0242      	lsls	r2, r0, #9
     8ec:	d10f      	bne.n	90e <__z_interrupt_stack_SIZEOF+0xce>
     8ee:	ea93 0f0c 	teq	r3, ip
     8f2:	d103      	bne.n	8fc <__z_interrupt_stack_SIZEOF+0xbc>
     8f4:	024b      	lsls	r3, r1, #9
     8f6:	bf18      	it	ne
     8f8:	4608      	movne	r0, r1
     8fa:	d108      	bne.n	90e <__z_interrupt_stack_SIZEOF+0xce>
     8fc:	ea80 0001 	eor.w	r0, r0, r1
     900:	f000 4000 	and.w	r0, r0, #2147483648	; 0x80000000
     904:	f040 40fe 	orr.w	r0, r0, #2130706432	; 0x7f000000
     908:	f440 0000 	orr.w	r0, r0, #8388608	; 0x800000
     90c:	4770      	bx	lr
     90e:	f040 40fe 	orr.w	r0, r0, #2130706432	; 0x7f000000
     912:	f440 0040 	orr.w	r0, r0, #12582912	; 0xc00000
     916:	4770      	bx	lr

00000918 <__aeabi_fdiv>:
     918:	f04f 0cff 	mov.w	ip, #255	; 0xff
     91c:	ea1c 52d0 	ands.w	r2, ip, r0, lsr #23
     920:	bf1e      	ittt	ne
     922:	ea1c 53d1 	andsne.w	r3, ip, r1, lsr #23
     926:	ea92 0f0c 	teqne	r2, ip
     92a:	ea93 0f0c 	teqne	r3, ip
     92e:	d069      	beq.n	a04 <__aeabi_fdiv+0xec>
     930:	eba2 0203 	sub.w	r2, r2, r3
     934:	ea80 0c01 	eor.w	ip, r0, r1
     938:	0249      	lsls	r1, r1, #9
     93a:	ea4f 2040 	mov.w	r0, r0, lsl #9
     93e:	d037      	beq.n	9b0 <__aeabi_fdiv+0x98>
     940:	f04f 5380 	mov.w	r3, #268435456	; 0x10000000
     944:	ea43 1111 	orr.w	r1, r3, r1, lsr #4
     948:	ea43 1310 	orr.w	r3, r3, r0, lsr #4
     94c:	f00c 4000 	and.w	r0, ip, #2147483648	; 0x80000000
     950:	428b      	cmp	r3, r1
     952:	bf38      	it	cc
     954:	005b      	lslcc	r3, r3, #1
     956:	f142 027d 	adc.w	r2, r2, #125	; 0x7d
     95a:	f44f 0c00 	mov.w	ip, #8388608	; 0x800000
     95e:	428b      	cmp	r3, r1
     960:	bf24      	itt	cs
     962:	1a5b      	subcs	r3, r3, r1
     964:	ea40 000c 	orrcs.w	r0, r0, ip
     968:	ebb3 0f51 	cmp.w	r3, r1, lsr #1
     96c:	bf24      	itt	cs
     96e:	eba3 0351 	subcs.w	r3, r3, r1, lsr #1
     972:	ea40 005c 	orrcs.w	r0, r0, ip, lsr #1
     976:	ebb3 0f91 	cmp.w	r3, r1, lsr #2
     97a:	bf24      	itt	cs
     97c:	eba3 0391 	subcs.w	r3, r3, r1, lsr #2
     980:	ea40 009c 	orrcs.w	r0, r0, ip, lsr #2
     984:	ebb3 0fd1 	cmp.w	r3, r1, lsr #3
     988:	bf24      	itt	cs
     98a:	eba3 03d1 	subcs.w	r3, r3, r1, lsr #3
     98e:	ea40 00dc 	orrcs.w	r0, r0, ip, lsr #3
     992:	011b      	lsls	r3, r3, #4
     994:	bf18      	it	ne
     996:	ea5f 1c1c 	movsne.w	ip, ip, lsr #4
     99a:	d1e0      	bne.n	95e <__aeabi_fdiv+0x46>
     99c:	2afd      	cmp	r2, #253	; 0xfd
     99e:	f63f af50 	bhi.w	842 <__z_interrupt_stack_SIZEOF+0x2>
     9a2:	428b      	cmp	r3, r1
     9a4:	eb40 50c2 	adc.w	r0, r0, r2, lsl #23
     9a8:	bf08      	it	eq
     9aa:	f020 0001 	biceq.w	r0, r0, #1
     9ae:	4770      	bx	lr
     9b0:	f00c 4c00 	and.w	ip, ip, #2147483648	; 0x80000000
     9b4:	ea4c 2050 	orr.w	r0, ip, r0, lsr #9
     9b8:	327f      	adds	r2, #127	; 0x7f
     9ba:	bfc2      	ittt	gt
     9bc:	f1d2 03ff 	rsbsgt	r3, r2, #255	; 0xff
     9c0:	ea40 50c2 	orrgt.w	r0, r0, r2, lsl #23
     9c4:	4770      	bxgt	lr
     9c6:	f440 0000 	orr.w	r0, r0, #8388608	; 0x800000
     9ca:	f04f 0300 	mov.w	r3, #0
     9ce:	3a01      	subs	r2, #1
     9d0:	e737      	b.n	842 <__z_interrupt_stack_SIZEOF+0x2>
     9d2:	f092 0f00 	teq	r2, #0
     9d6:	f000 4c00 	and.w	ip, r0, #2147483648	; 0x80000000
     9da:	bf02      	ittt	eq
     9dc:	0040      	lsleq	r0, r0, #1
     9de:	f410 0f00 	tsteq.w	r0, #8388608	; 0x800000
     9e2:	3a01      	subeq	r2, #1
     9e4:	d0f9      	beq.n	9da <__aeabi_fdiv+0xc2>
     9e6:	ea40 000c 	orr.w	r0, r0, ip
     9ea:	f093 0f00 	teq	r3, #0
     9ee:	f001 4c00 	and.w	ip, r1, #2147483648	; 0x80000000
     9f2:	bf02      	ittt	eq
     9f4:	0049      	lsleq	r1, r1, #1
     9f6:	f411 0f00 	tsteq.w	r1, #8388608	; 0x800000
     9fa:	3b01      	subeq	r3, #1
     9fc:	d0f9      	beq.n	9f2 <__aeabi_fdiv+0xda>
     9fe:	ea41 010c 	orr.w	r1, r1, ip
     a02:	e795      	b.n	930 <__aeabi_fdiv+0x18>
     a04:	ea0c 53d1 	and.w	r3, ip, r1, lsr #23
     a08:	ea92 0f0c 	teq	r2, ip
     a0c:	d108      	bne.n	a20 <__aeabi_fdiv+0x108>
     a0e:	0242      	lsls	r2, r0, #9
     a10:	f47f af7d 	bne.w	90e <__z_interrupt_stack_SIZEOF+0xce>
     a14:	ea93 0f0c 	teq	r3, ip
     a18:	f47f af70 	bne.w	8fc <__z_interrupt_stack_SIZEOF+0xbc>
     a1c:	4608      	mov	r0, r1
     a1e:	e776      	b.n	90e <__z_interrupt_stack_SIZEOF+0xce>
     a20:	ea93 0f0c 	teq	r3, ip
     a24:	d104      	bne.n	a30 <__aeabi_fdiv+0x118>
     a26:	024b      	lsls	r3, r1, #9
     a28:	f43f af4c 	beq.w	8c4 <__z_interrupt_stack_SIZEOF+0x84>
     a2c:	4608      	mov	r0, r1
     a2e:	e76e      	b.n	90e <__z_interrupt_stack_SIZEOF+0xce>
     a30:	f030 4c00 	bics.w	ip, r0, #2147483648	; 0x80000000
     a34:	bf18      	it	ne
     a36:	f031 4c00 	bicsne.w	ip, r1, #2147483648	; 0x80000000
     a3a:	d1ca      	bne.n	9d2 <__aeabi_fdiv+0xba>
     a3c:	f030 4200 	bics.w	r2, r0, #2147483648	; 0x80000000
     a40:	f47f af5c 	bne.w	8fc <__z_interrupt_stack_SIZEOF+0xbc>
     a44:	f031 4300 	bics.w	r3, r1, #2147483648	; 0x80000000
     a48:	f47f af3c 	bne.w	8c4 <__z_interrupt_stack_SIZEOF+0x84>
     a4c:	e75f      	b.n	90e <__z_interrupt_stack_SIZEOF+0xce>
     a4e:	bf00      	nop

00000a50 <__aeabi_uldivmod>:
     a50:	b953      	cbnz	r3, a68 <__aeabi_uldivmod+0x18>
     a52:	b94a      	cbnz	r2, a68 <__aeabi_uldivmod+0x18>
     a54:	2900      	cmp	r1, #0
     a56:	bf08      	it	eq
     a58:	2800      	cmpeq	r0, #0
     a5a:	bf1c      	itt	ne
     a5c:	f04f 31ff 	movne.w	r1, #4294967295	; 0xffffffff
     a60:	f04f 30ff 	movne.w	r0, #4294967295	; 0xffffffff
     a64:	f000 bd64 	b.w	1530 <__aeabi_idiv0>
     a68:	f1ad 0c08 	sub.w	ip, sp, #8
     a6c:	e96d ce04 	strd	ip, lr, [sp, #-16]!
     a70:	f000 fd60 	bl	1534 <__udivmoddi4>
     a74:	f8dd e004 	ldr.w	lr, [sp, #4]
     a78:	e9dd 2302 	ldrd	r2, r3, [sp, #8]
     a7c:	b004      	add	sp, #16
     a7e:	4770      	bx	lr

00000a80 <selfrel_offset31>:
     a80:	6803      	ldr	r3, [r0, #0]
     a82:	005a      	lsls	r2, r3, #1
     a84:	bf4c      	ite	mi
     a86:	f043 4300 	orrmi.w	r3, r3, #2147483648	; 0x80000000
     a8a:	f023 4300 	bicpl.w	r3, r3, #2147483648	; 0x80000000
     a8e:	4418      	add	r0, r3
     a90:	4770      	bx	lr

00000a92 <search_EIT_table>:
     a92:	e92d 47f0 	stmdb	sp!, {r4, r5, r6, r7, r8, r9, sl, lr}
     a96:	4606      	mov	r6, r0
     a98:	4617      	mov	r7, r2
     a9a:	b341      	cbz	r1, aee <search_EIT_table+0x5c>
     a9c:	3901      	subs	r1, #1
     a9e:	4688      	mov	r8, r1
     aa0:	f04f 0900 	mov.w	r9, #0
     aa4:	eb09 0408 	add.w	r4, r9, r8
     aa8:	eb04 74d4 	add.w	r4, r4, r4, lsr #31
     aac:	1064      	asrs	r4, r4, #1
     aae:	eb06 05c4 	add.w	r5, r6, r4, lsl #3
     ab2:	4628      	mov	r0, r5
     ab4:	f7ff ffe4 	bl	a80 <selfrel_offset31>
     ab8:	42a1      	cmp	r1, r4
     aba:	ea4f 0ac4 	mov.w	sl, r4, lsl #3
     abe:	d104      	bne.n	aca <search_EIT_table+0x38>
     ac0:	42b8      	cmp	r0, r7
     ac2:	d804      	bhi.n	ace <search_EIT_table+0x3c>
     ac4:	4628      	mov	r0, r5
     ac6:	e8bd 87f0 	ldmia.w	sp!, {r4, r5, r6, r7, r8, r9, sl, pc}
     aca:	42b8      	cmp	r0, r7
     acc:	d904      	bls.n	ad8 <search_EIT_table+0x46>
     ace:	45a1      	cmp	r9, r4
     ad0:	d00d      	beq.n	aee <search_EIT_table+0x5c>
     ad2:	f104 38ff 	add.w	r8, r4, #4294967295	; 0xffffffff
     ad6:	e7e5      	b.n	aa4 <search_EIT_table+0x12>
     ad8:	f10a 0008 	add.w	r0, sl, #8
     adc:	4430      	add	r0, r6
     ade:	f7ff ffcf 	bl	a80 <selfrel_offset31>
     ae2:	3801      	subs	r0, #1
     ae4:	42b8      	cmp	r0, r7
     ae6:	d2ed      	bcs.n	ac4 <search_EIT_table+0x32>
     ae8:	f104 0901 	add.w	r9, r4, #1
     aec:	e7da      	b.n	aa4 <search_EIT_table+0x12>
     aee:	2500      	movs	r5, #0
     af0:	e7e8      	b.n	ac4 <search_EIT_table+0x32>

00000af2 <__gnu_unwind_get_pr_addr>:
     af2:	2801      	cmp	r0, #1
     af4:	d006      	beq.n	b04 <__gnu_unwind_get_pr_addr+0x12>
     af6:	2802      	cmp	r0, #2
     af8:	d006      	beq.n	b08 <__gnu_unwind_get_pr_addr+0x16>
     afa:	2800      	cmp	r0, #0
     afc:	4803      	ldr	r0, [pc, #12]	; (b0c <__gnu_unwind_get_pr_addr+0x1a>)
     afe:	bf18      	it	ne
     b00:	2000      	movne	r0, #0
     b02:	4770      	bx	lr
     b04:	4802      	ldr	r0, [pc, #8]	; (b10 <__gnu_unwind_get_pr_addr+0x1e>)
     b06:	4770      	bx	lr
     b08:	4802      	ldr	r0, [pc, #8]	; (b14 <__gnu_unwind_get_pr_addr+0x22>)
     b0a:	4770      	bx	lr
     b0c:	0000110d 	.word	0x0000110d
     b10:	00001111 	.word	0x00001111
     b14:	00001115 	.word	0x00001115

00000b18 <get_eit_entry>:
     b18:	4b1f      	ldr	r3, [pc, #124]	; (b98 <get_eit_entry+0x80>)
     b1a:	b537      	push	{r0, r1, r2, r4, r5, lr}
     b1c:	4604      	mov	r4, r0
     b1e:	1e8d      	subs	r5, r1, #2
     b20:	b14b      	cbz	r3, b36 <get_eit_entry+0x1e>
     b22:	a901      	add	r1, sp, #4
     b24:	4628      	mov	r0, r5
     b26:	f3af 8000 	nop.w
     b2a:	b948      	cbnz	r0, b40 <get_eit_entry+0x28>
     b2c:	2300      	movs	r3, #0
     b2e:	2009      	movs	r0, #9
     b30:	6123      	str	r3, [r4, #16]
     b32:	b003      	add	sp, #12
     b34:	bd30      	pop	{r4, r5, pc}
     b36:	4819      	ldr	r0, [pc, #100]	; (b9c <get_eit_entry+0x84>)
     b38:	4b19      	ldr	r3, [pc, #100]	; (ba0 <get_eit_entry+0x88>)
     b3a:	1a1b      	subs	r3, r3, r0
     b3c:	10db      	asrs	r3, r3, #3
     b3e:	9301      	str	r3, [sp, #4]
     b40:	9901      	ldr	r1, [sp, #4]
     b42:	462a      	mov	r2, r5
     b44:	f7ff ffa5 	bl	a92 <search_EIT_table>
     b48:	4601      	mov	r1, r0
     b4a:	2800      	cmp	r0, #0
     b4c:	d0ee      	beq.n	b2c <get_eit_entry+0x14>
     b4e:	f7ff ff97 	bl	a80 <selfrel_offset31>
     b52:	684b      	ldr	r3, [r1, #4]
     b54:	64a0      	str	r0, [r4, #72]	; 0x48
     b56:	2b01      	cmp	r3, #1
     b58:	d01a      	beq.n	b90 <get_eit_entry+0x78>
     b5a:	2b00      	cmp	r3, #0
     b5c:	f101 0004 	add.w	r0, r1, #4
     b60:	db10      	blt.n	b84 <get_eit_entry+0x6c>
     b62:	f7ff ff8d 	bl	a80 <selfrel_offset31>
     b66:	2300      	movs	r3, #0
     b68:	e9c4 0313 	strd	r0, r3, [r4, #76]	; 0x4c
     b6c:	6803      	ldr	r3, [r0, #0]
     b6e:	2b00      	cmp	r3, #0
     b70:	da0a      	bge.n	b88 <get_eit_entry+0x70>
     b72:	f3c3 6003 	ubfx	r0, r3, #24, #4
     b76:	f7ff ffbc 	bl	af2 <__gnu_unwind_get_pr_addr>
     b7a:	4603      	mov	r3, r0
     b7c:	2800      	cmp	r0, #0
     b7e:	d0d5      	beq.n	b2c <get_eit_entry+0x14>
     b80:	2000      	movs	r0, #0
     b82:	e7d5      	b.n	b30 <get_eit_entry+0x18>
     b84:	2301      	movs	r3, #1
     b86:	e7ef      	b.n	b68 <get_eit_entry+0x50>
     b88:	f7ff ff7a 	bl	a80 <selfrel_offset31>
     b8c:	4603      	mov	r3, r0
     b8e:	e7f7      	b.n	b80 <get_eit_entry+0x68>
     b90:	2300      	movs	r3, #0
     b92:	2005      	movs	r0, #5
     b94:	e7cc      	b.n	b30 <get_eit_entry+0x18>
     b96:	bf00      	nop
     b98:	00000000 	.word	0x00000000
     b9c:	0000c710 	.word	0x0000c710
     ba0:	0000c7d0 	.word	0x0000c7d0

00000ba4 <restore_non_core_regs>:
     ba4:	6803      	ldr	r3, [r0, #0]
     ba6:	07da      	lsls	r2, r3, #31
     ba8:	b510      	push	{r4, lr}
     baa:	4604      	mov	r4, r0
     bac:	d405      	bmi.n	bba <restore_non_core_regs+0x16>
     bae:	079b      	lsls	r3, r3, #30
     bb0:	f100 0048 	add.w	r0, r0, #72	; 0x48
     bb4:	d518      	bpl.n	be8 <restore_non_core_regs+0x44>
     bb6:	f000 fbf9 	bl	13ac <__gnu_Unwind_Restore_VFP_D>
     bba:	6823      	ldr	r3, [r4, #0]
     bbc:	0759      	lsls	r1, r3, #29
     bbe:	d403      	bmi.n	bc8 <restore_non_core_regs+0x24>
     bc0:	f104 00d0 	add.w	r0, r4, #208	; 0xd0
     bc4:	f000 fbfa 	bl	13bc <__gnu_Unwind_Restore_VFP_D_16_to_31>
     bc8:	6823      	ldr	r3, [r4, #0]
     bca:	071a      	lsls	r2, r3, #28
     bcc:	d403      	bmi.n	bd6 <restore_non_core_regs+0x32>
     bce:	f504 70a8 	add.w	r0, r4, #336	; 0x150
     bd2:	f000 fbfb 	bl	13cc <__gnu_Unwind_Restore_WMMXD>
     bd6:	6823      	ldr	r3, [r4, #0]
     bd8:	06db      	lsls	r3, r3, #27
     bda:	d408      	bmi.n	bee <restore_non_core_regs+0x4a>
     bdc:	f504 70e8 	add.w	r0, r4, #464	; 0x1d0
     be0:	e8bd 4010 	ldmia.w	sp!, {r4, lr}
     be4:	f000 bc36 	b.w	1454 <__gnu_Unwind_Restore_WMMXC>
     be8:	f000 fbd8 	bl	139c <__gnu_Unwind_Restore_VFP>
     bec:	e7e5      	b.n	bba <restore_non_core_regs+0x16>
     bee:	bd10      	pop	{r4, pc}

00000bf0 <__gnu_unwind_24bit.constprop.0>:
     bf0:	2009      	movs	r0, #9
     bf2:	4770      	bx	lr

00000bf4 <_Unwind_decode_typeinfo_ptr.constprop.0>:
     bf4:	4603      	mov	r3, r0
     bf6:	6800      	ldr	r0, [r0, #0]
     bf8:	b100      	cbz	r0, bfc <_Unwind_decode_typeinfo_ptr.constprop.0+0x8>
     bfa:	4418      	add	r0, r3
     bfc:	4770      	bx	lr

00000bfe <_Unwind_DebugHook>:
     bfe:	4770      	bx	lr

00000c00 <unwind_phase2>:
     c00:	b570      	push	{r4, r5, r6, lr}
     c02:	4605      	mov	r5, r0
     c04:	460c      	mov	r4, r1
     c06:	6c21      	ldr	r1, [r4, #64]	; 0x40
     c08:	4628      	mov	r0, r5
     c0a:	f7ff ff85 	bl	b18 <get_eit_entry>
     c0e:	4606      	mov	r6, r0
     c10:	b108      	cbz	r0, c16 <unwind_phase2+0x16>
     c12:	f00b fa6c 	bl	c0ee <abort>
     c16:	6c23      	ldr	r3, [r4, #64]	; 0x40
     c18:	616b      	str	r3, [r5, #20]
     c1a:	4622      	mov	r2, r4
     c1c:	692b      	ldr	r3, [r5, #16]
     c1e:	4629      	mov	r1, r5
     c20:	2001      	movs	r0, #1
     c22:	4798      	blx	r3
     c24:	2808      	cmp	r0, #8
     c26:	d0ee      	beq.n	c06 <unwind_phase2+0x6>
     c28:	2807      	cmp	r0, #7
     c2a:	d1f2      	bne.n	c12 <unwind_phase2+0x12>
     c2c:	4630      	mov	r0, r6
     c2e:	6c21      	ldr	r1, [r4, #64]	; 0x40
     c30:	f7ff ffe5 	bl	bfe <_Unwind_DebugHook>
     c34:	1d20      	adds	r0, r4, #4
     c36:	f000 fba5 	bl	1384 <__restore_core_regs>

00000c3a <unwind_phase2_forced>:
     c3a:	e92d 47f0 	stmdb	sp!, {r4, r5, r6, r7, r8, r9, sl, lr}
     c3e:	1d0c      	adds	r4, r1, #4
     c40:	f8d0 900c 	ldr.w	r9, [r0, #12]
     c44:	f8d0 a018 	ldr.w	sl, [r0, #24]
     c48:	4607      	mov	r7, r0
     c4a:	4616      	mov	r6, r2
     c4c:	cc0f      	ldmia	r4!, {r0, r1, r2, r3}
     c4e:	f5ad 7d72 	sub.w	sp, sp, #968	; 0x3c8
     c52:	ad03      	add	r5, sp, #12
     c54:	c50f      	stmia	r5!, {r0, r1, r2, r3}
     c56:	cc0f      	ldmia	r4!, {r0, r1, r2, r3}
     c58:	c50f      	stmia	r5!, {r0, r1, r2, r3}
     c5a:	cc0f      	ldmia	r4!, {r0, r1, r2, r3}
     c5c:	c50f      	stmia	r5!, {r0, r1, r2, r3}
     c5e:	e894 000f 	ldmia.w	r4, {r0, r1, r2, r3}
     c62:	f10d 0808 	add.w	r8, sp, #8
     c66:	e885 000f 	stmia.w	r5, {r0, r1, r2, r3}
     c6a:	2500      	movs	r5, #0
     c6c:	f8c8 5000 	str.w	r5, [r8]
     c70:	f8d8 1040 	ldr.w	r1, [r8, #64]	; 0x40
     c74:	4638      	mov	r0, r7
     c76:	f7ff ff4f 	bl	b18 <get_eit_entry>
     c7a:	3609      	adds	r6, #9
     c7c:	b2f6      	uxtb	r6, r6
     c7e:	4604      	mov	r4, r0
     c80:	bb68      	cbnz	r0, cde <unwind_phase2_forced+0xa4>
     c82:	f8d8 3040 	ldr.w	r3, [r8, #64]	; 0x40
     c86:	617b      	str	r3, [r7, #20]
     c88:	f44f 72f0 	mov.w	r2, #480	; 0x1e0
     c8c:	4641      	mov	r1, r8
     c8e:	a87a      	add	r0, sp, #488	; 0x1e8
     c90:	f00b fa44 	bl	c11c <memcpy>
     c94:	693b      	ldr	r3, [r7, #16]
     c96:	aa7a      	add	r2, sp, #488	; 0x1e8
     c98:	4639      	mov	r1, r7
     c9a:	4630      	mov	r0, r6
     c9c:	4798      	blx	r3
     c9e:	9b88      	ldr	r3, [sp, #544]	; 0x220
     ca0:	4605      	mov	r5, r0
     ca2:	f8c8 3044 	str.w	r3, [r8, #68]	; 0x44
     ca6:	463a      	mov	r2, r7
     ca8:	e9cd 8a00 	strd	r8, sl, [sp]
     cac:	463b      	mov	r3, r7
     cae:	4631      	mov	r1, r6
     cb0:	2001      	movs	r0, #1
     cb2:	47c8      	blx	r9
     cb4:	b9c0      	cbnz	r0, ce8 <unwind_phase2_forced+0xae>
     cb6:	b9c4      	cbnz	r4, cea <unwind_phase2_forced+0xb0>
     cb8:	f44f 72f0 	mov.w	r2, #480	; 0x1e0
     cbc:	a97a      	add	r1, sp, #488	; 0x1e8
     cbe:	4640      	mov	r0, r8
     cc0:	f00b fa2c 	bl	c11c <memcpy>
     cc4:	2d08      	cmp	r5, #8
     cc6:	4626      	mov	r6, r4
     cc8:	d0d2      	beq.n	c70 <unwind_phase2_forced+0x36>
     cca:	2d07      	cmp	r5, #7
     ccc:	d10c      	bne.n	ce8 <unwind_phase2_forced+0xae>
     cce:	4620      	mov	r0, r4
     cd0:	f8d8 1040 	ldr.w	r1, [r8, #64]	; 0x40
     cd4:	f7ff ff93 	bl	bfe <_Unwind_DebugHook>
     cd8:	a803      	add	r0, sp, #12
     cda:	f000 fb53 	bl	1384 <__restore_core_regs>
     cde:	f8d8 3038 	ldr.w	r3, [r8, #56]	; 0x38
     ce2:	f046 0610 	orr.w	r6, r6, #16
     ce6:	e7dc      	b.n	ca2 <unwind_phase2_forced+0x68>
     ce8:	2409      	movs	r4, #9
     cea:	4620      	mov	r0, r4
     cec:	f50d 7d72 	add.w	sp, sp, #968	; 0x3c8
     cf0:	e8bd 87f0 	ldmia.w	sp!, {r4, r5, r6, r7, r8, r9, sl, pc}

00000cf4 <_Unwind_GetCFA>:
     cf4:	6c40      	ldr	r0, [r0, #68]	; 0x44
     cf6:	4770      	bx	lr

00000cf8 <__gnu_Unwind_RaiseException>:
     cf8:	b5f0      	push	{r4, r5, r6, r7, lr}
     cfa:	6bcb      	ldr	r3, [r1, #60]	; 0x3c
     cfc:	640b      	str	r3, [r1, #64]	; 0x40
     cfe:	1d0d      	adds	r5, r1, #4
     d00:	4606      	mov	r6, r0
     d02:	460f      	mov	r7, r1
     d04:	cd0f      	ldmia	r5!, {r0, r1, r2, r3}
     d06:	b0f9      	sub	sp, #484	; 0x1e4
     d08:	ac01      	add	r4, sp, #4
     d0a:	c40f      	stmia	r4!, {r0, r1, r2, r3}
     d0c:	cd0f      	ldmia	r5!, {r0, r1, r2, r3}
     d0e:	c40f      	stmia	r4!, {r0, r1, r2, r3}
     d10:	cd0f      	ldmia	r5!, {r0, r1, r2, r3}
     d12:	c40f      	stmia	r4!, {r0, r1, r2, r3}
     d14:	e895 000f 	ldmia.w	r5, {r0, r1, r2, r3}
     d18:	e884 000f 	stmia.w	r4, {r0, r1, r2, r3}
     d1c:	f04f 33ff 	mov.w	r3, #4294967295	; 0xffffffff
     d20:	9300      	str	r3, [sp, #0]
     d22:	9910      	ldr	r1, [sp, #64]	; 0x40
     d24:	4630      	mov	r0, r6
     d26:	f7ff fef7 	bl	b18 <get_eit_entry>
     d2a:	b978      	cbnz	r0, d4c <__gnu_Unwind_RaiseException+0x54>
     d2c:	6933      	ldr	r3, [r6, #16]
     d2e:	466a      	mov	r2, sp
     d30:	4631      	mov	r1, r6
     d32:	4798      	blx	r3
     d34:	2808      	cmp	r0, #8
     d36:	4604      	mov	r4, r0
     d38:	d0f3      	beq.n	d22 <__gnu_Unwind_RaiseException+0x2a>
     d3a:	4668      	mov	r0, sp
     d3c:	f7ff ff32 	bl	ba4 <restore_non_core_regs>
     d40:	2c06      	cmp	r4, #6
     d42:	d103      	bne.n	d4c <__gnu_Unwind_RaiseException+0x54>
     d44:	4639      	mov	r1, r7
     d46:	4630      	mov	r0, r6
     d48:	f7ff ff5a 	bl	c00 <unwind_phase2>
     d4c:	2009      	movs	r0, #9
     d4e:	b079      	add	sp, #484	; 0x1e4
     d50:	bdf0      	pop	{r4, r5, r6, r7, pc}

00000d52 <__gnu_Unwind_ForcedUnwind>:
     d52:	b410      	push	{r4}
     d54:	6182      	str	r2, [r0, #24]
     d56:	6bda      	ldr	r2, [r3, #60]	; 0x3c
     d58:	60c1      	str	r1, [r0, #12]
     d5a:	bc10      	pop	{r4}
     d5c:	641a      	str	r2, [r3, #64]	; 0x40
     d5e:	4619      	mov	r1, r3
     d60:	2200      	movs	r2, #0
     d62:	e76a      	b.n	c3a <unwind_phase2_forced>

00000d64 <__gnu_Unwind_Resume>:
     d64:	b570      	push	{r4, r5, r6, lr}
     d66:	68c6      	ldr	r6, [r0, #12]
     d68:	6943      	ldr	r3, [r0, #20]
     d6a:	640b      	str	r3, [r1, #64]	; 0x40
     d6c:	4604      	mov	r4, r0
     d6e:	460d      	mov	r5, r1
     d70:	b126      	cbz	r6, d7c <__gnu_Unwind_Resume+0x18>
     d72:	2201      	movs	r2, #1
     d74:	f7ff ff61 	bl	c3a <unwind_phase2_forced>
     d78:	f00b f9b9 	bl	c0ee <abort>
     d7c:	6903      	ldr	r3, [r0, #16]
     d7e:	460a      	mov	r2, r1
     d80:	4601      	mov	r1, r0
     d82:	2002      	movs	r0, #2
     d84:	4798      	blx	r3
     d86:	2807      	cmp	r0, #7
     d88:	d005      	beq.n	d96 <__gnu_Unwind_Resume+0x32>
     d8a:	2808      	cmp	r0, #8
     d8c:	d1f4      	bne.n	d78 <__gnu_Unwind_Resume+0x14>
     d8e:	4629      	mov	r1, r5
     d90:	4620      	mov	r0, r4
     d92:	f7ff ff35 	bl	c00 <unwind_phase2>
     d96:	4630      	mov	r0, r6
     d98:	6c29      	ldr	r1, [r5, #64]	; 0x40
     d9a:	f7ff ff30 	bl	bfe <_Unwind_DebugHook>
     d9e:	1d28      	adds	r0, r5, #4
     da0:	f000 faf0 	bl	1384 <__restore_core_regs>

00000da4 <__gnu_Unwind_Resume_or_Rethrow>:
     da4:	68c2      	ldr	r2, [r0, #12]
     da6:	b902      	cbnz	r2, daa <__gnu_Unwind_Resume_or_Rethrow+0x6>
     da8:	e7a6      	b.n	cf8 <__gnu_Unwind_RaiseException>
     daa:	6bca      	ldr	r2, [r1, #60]	; 0x3c
     dac:	640a      	str	r2, [r1, #64]	; 0x40
     dae:	2200      	movs	r2, #0
     db0:	e743      	b.n	c3a <unwind_phase2_forced>

00000db2 <_Unwind_Complete>:
     db2:	4770      	bx	lr

00000db4 <_Unwind_DeleteException>:
     db4:	6883      	ldr	r3, [r0, #8]
     db6:	4601      	mov	r1, r0
     db8:	b10b      	cbz	r3, dbe <_Unwind_DeleteException+0xa>
     dba:	2001      	movs	r0, #1
     dbc:	4718      	bx	r3
     dbe:	4770      	bx	lr

00000dc0 <_Unwind_VRS_Get>:
     dc0:	2901      	cmp	r1, #1
     dc2:	b510      	push	{r4, lr}
     dc4:	4604      	mov	r4, r0
     dc6:	4608      	mov	r0, r1
     dc8:	d005      	beq.n	dd6 <_Unwind_VRS_Get+0x16>
     dca:	d905      	bls.n	dd8 <_Unwind_VRS_Get+0x18>
     dcc:	1ec8      	subs	r0, r1, #3
     dce:	2801      	cmp	r0, #1
     dd0:	bf8c      	ite	hi
     dd2:	2002      	movhi	r0, #2
     dd4:	2001      	movls	r0, #1
     dd6:	bd10      	pop	{r4, pc}
     dd8:	b943      	cbnz	r3, dec <_Unwind_VRS_Get+0x2c>
     dda:	2a0f      	cmp	r2, #15
     ddc:	d806      	bhi.n	dec <_Unwind_VRS_Get+0x2c>
     dde:	eb04 0482 	add.w	r4, r4, r2, lsl #2
     de2:	9a02      	ldr	r2, [sp, #8]
     de4:	6861      	ldr	r1, [r4, #4]
     de6:	6011      	str	r1, [r2, #0]
     de8:	4618      	mov	r0, r3
     dea:	e7f4      	b.n	dd6 <_Unwind_VRS_Get+0x16>
     dec:	2002      	movs	r0, #2
     dee:	e7f2      	b.n	dd6 <_Unwind_VRS_Get+0x16>

00000df0 <_Unwind_GetGR>:
     df0:	b51f      	push	{r0, r1, r2, r3, r4, lr}
     df2:	ab03      	add	r3, sp, #12
     df4:	9300      	str	r3, [sp, #0]
     df6:	2300      	movs	r3, #0
     df8:	460a      	mov	r2, r1
     dfa:	4619      	mov	r1, r3
     dfc:	f7ff ffe0 	bl	dc0 <_Unwind_VRS_Get>
     e00:	9803      	ldr	r0, [sp, #12]
     e02:	b005      	add	sp, #20
     e04:	f85d fb04 	ldr.w	pc, [sp], #4

00000e08 <_Unwind_VRS_Set>:
     e08:	2901      	cmp	r1, #1
     e0a:	b510      	push	{r4, lr}
     e0c:	4604      	mov	r4, r0
     e0e:	4608      	mov	r0, r1
     e10:	d005      	beq.n	e1e <_Unwind_VRS_Set+0x16>
     e12:	d905      	bls.n	e20 <_Unwind_VRS_Set+0x18>
     e14:	1ec8      	subs	r0, r1, #3
     e16:	2801      	cmp	r0, #1
     e18:	bf8c      	ite	hi
     e1a:	2002      	movhi	r0, #2
     e1c:	2001      	movls	r0, #1
     e1e:	bd10      	pop	{r4, pc}
     e20:	b943      	cbnz	r3, e34 <_Unwind_VRS_Set+0x2c>
     e22:	2a0f      	cmp	r2, #15
     e24:	d806      	bhi.n	e34 <_Unwind_VRS_Set+0x2c>
     e26:	9902      	ldr	r1, [sp, #8]
     e28:	eb04 0482 	add.w	r4, r4, r2, lsl #2
     e2c:	6809      	ldr	r1, [r1, #0]
     e2e:	6061      	str	r1, [r4, #4]
     e30:	4618      	mov	r0, r3
     e32:	e7f4      	b.n	e1e <_Unwind_VRS_Set+0x16>
     e34:	2002      	movs	r0, #2
     e36:	e7f2      	b.n	e1e <_Unwind_VRS_Set+0x16>

00000e38 <_Unwind_SetGR>:
     e38:	b51f      	push	{r0, r1, r2, r3, r4, lr}
     e3a:	ab03      	add	r3, sp, #12
     e3c:	9300      	str	r3, [sp, #0]
     e3e:	2300      	movs	r3, #0
     e40:	9203      	str	r2, [sp, #12]
     e42:	460a      	mov	r2, r1
     e44:	4619      	mov	r1, r3
     e46:	f7ff ffdf 	bl	e08 <_Unwind_VRS_Set>
     e4a:	b005      	add	sp, #20
     e4c:	f85d fb04 	ldr.w	pc, [sp], #4

00000e50 <__gnu_Unwind_Backtrace>:
     e50:	b5f0      	push	{r4, r5, r6, r7, lr}
     e52:	6bd3      	ldr	r3, [r2, #60]	; 0x3c
     e54:	6413      	str	r3, [r2, #64]	; 0x40
     e56:	1d14      	adds	r4, r2, #4
     e58:	4606      	mov	r6, r0
     e5a:	460f      	mov	r7, r1
     e5c:	cc0f      	ldmia	r4!, {r0, r1, r2, r3}
     e5e:	f5ad 7d0f 	sub.w	sp, sp, #572	; 0x23c
     e62:	ad17      	add	r5, sp, #92	; 0x5c
     e64:	c50f      	stmia	r5!, {r0, r1, r2, r3}
     e66:	cc0f      	ldmia	r4!, {r0, r1, r2, r3}
     e68:	c50f      	stmia	r5!, {r0, r1, r2, r3}
     e6a:	cc0f      	ldmia	r4!, {r0, r1, r2, r3}
     e6c:	c50f      	stmia	r5!, {r0, r1, r2, r3}
     e6e:	e894 000f 	ldmia.w	r4, {r0, r1, r2, r3}
     e72:	e885 000f 	stmia.w	r5, {r0, r1, r2, r3}
     e76:	f04f 33ff 	mov.w	r3, #4294967295	; 0xffffffff
     e7a:	9316      	str	r3, [sp, #88]	; 0x58
     e7c:	9926      	ldr	r1, [sp, #152]	; 0x98
     e7e:	4668      	mov	r0, sp
     e80:	f7ff fe4a 	bl	b18 <get_eit_entry>
     e84:	b990      	cbnz	r0, eac <__gnu_Unwind_Backtrace+0x5c>
     e86:	210c      	movs	r1, #12
     e88:	a816      	add	r0, sp, #88	; 0x58
     e8a:	466a      	mov	r2, sp
     e8c:	f7ff ffd4 	bl	e38 <_Unwind_SetGR>
     e90:	4639      	mov	r1, r7
     e92:	a816      	add	r0, sp, #88	; 0x58
     e94:	47b0      	blx	r6
     e96:	b948      	cbnz	r0, eac <__gnu_Unwind_Backtrace+0x5c>
     e98:	9b04      	ldr	r3, [sp, #16]
     e9a:	aa16      	add	r2, sp, #88	; 0x58
     e9c:	4669      	mov	r1, sp
     e9e:	2008      	movs	r0, #8
     ea0:	4798      	blx	r3
     ea2:	2805      	cmp	r0, #5
     ea4:	4604      	mov	r4, r0
     ea6:	d002      	beq.n	eae <__gnu_Unwind_Backtrace+0x5e>
     ea8:	2809      	cmp	r0, #9
     eaa:	d1e7      	bne.n	e7c <__gnu_Unwind_Backtrace+0x2c>
     eac:	2409      	movs	r4, #9
     eae:	a816      	add	r0, sp, #88	; 0x58
     eb0:	f7ff fe78 	bl	ba4 <restore_non_core_regs>
     eb4:	4620      	mov	r0, r4
     eb6:	f50d 7d0f 	add.w	sp, sp, #572	; 0x23c
     eba:	bdf0      	pop	{r4, r5, r6, r7, pc}

00000ebc <__gnu_unwind_pr_common>:
     ebc:	e92d 4ff0 	stmdb	sp!, {r4, r5, r6, r7, r8, r9, sl, fp, lr}
     ec0:	6ccd      	ldr	r5, [r1, #76]	; 0x4c
     ec2:	b087      	sub	sp, #28
     ec4:	4617      	mov	r7, r2
     ec6:	f855 2b04 	ldr.w	r2, [r5], #4
     eca:	9504      	str	r5, [sp, #16]
     ecc:	460c      	mov	r4, r1
     ece:	f000 0903 	and.w	r9, r0, #3
     ed2:	469a      	mov	sl, r3
     ed4:	bb3b      	cbnz	r3, f26 <__gnu_unwind_pr_common+0x6a>
     ed6:	0212      	lsls	r2, r2, #8
     ed8:	f88d 3015 	strb.w	r3, [sp, #21]
     edc:	9203      	str	r2, [sp, #12]
     ede:	2303      	movs	r3, #3
     ee0:	f88d 3014 	strb.w	r3, [sp, #20]
     ee4:	6d23      	ldr	r3, [r4, #80]	; 0x50
     ee6:	f1b9 0f02 	cmp.w	r9, #2
     eea:	bf08      	it	eq
     eec:	6ba5      	ldreq	r5, [r4, #56]	; 0x38
     eee:	f013 0301 	ands.w	r3, r3, #1
     ef2:	d122      	bne.n	f3a <__gnu_unwind_pr_common+0x7e>
     ef4:	f000 0808 	and.w	r8, r0, #8
     ef8:	9300      	str	r3, [sp, #0]
     efa:	682b      	ldr	r3, [r5, #0]
     efc:	bb43      	cbnz	r3, f50 <__gnu_unwind_pr_common+0x94>
     efe:	a903      	add	r1, sp, #12
     f00:	4638      	mov	r0, r7
     f02:	f000 fc8c 	bl	181e <__gnu_unwind_execute>
     f06:	2800      	cmp	r0, #0
     f08:	f040 80fb 	bne.w	1102 <CONFIG_FPROTECT_BLOCK_SIZE+0x102>
     f0c:	9b00      	ldr	r3, [sp, #0]
     f0e:	b1db      	cbz	r3, f48 <__gnu_unwind_pr_common+0x8c>
     f10:	210f      	movs	r1, #15
     f12:	4638      	mov	r0, r7
     f14:	f7ff ff6c 	bl	df0 <_Unwind_GetGR>
     f18:	210e      	movs	r1, #14
     f1a:	4602      	mov	r2, r0
     f1c:	4638      	mov	r0, r7
     f1e:	f7ff ff8b 	bl	e38 <_Unwind_SetGR>
     f22:	4a79      	ldr	r2, [pc, #484]	; (1108 <CONFIG_FPROTECT_BLOCK_SIZE+0x108>)
     f24:	e055      	b.n	fd2 <__gnu_unwind_pr_common+0x116>
     f26:	0c13      	lsrs	r3, r2, #16
     f28:	f88d 3015 	strb.w	r3, [sp, #21]
     f2c:	0412      	lsls	r2, r2, #16
     f2e:	b2db      	uxtb	r3, r3
     f30:	eb05 0583 	add.w	r5, r5, r3, lsl #2
     f34:	9203      	str	r2, [sp, #12]
     f36:	2302      	movs	r3, #2
     f38:	e7d2      	b.n	ee0 <__gnu_unwind_pr_common+0x24>
     f3a:	a903      	add	r1, sp, #12
     f3c:	4638      	mov	r0, r7
     f3e:	f000 fc6e 	bl	181e <__gnu_unwind_execute>
     f42:	2800      	cmp	r0, #0
     f44:	f040 80dd 	bne.w	1102 <CONFIG_FPROTECT_BLOCK_SIZE+0x102>
     f48:	2008      	movs	r0, #8
     f4a:	b007      	add	sp, #28
     f4c:	e8bd 8ff0 	ldmia.w	sp!, {r4, r5, r6, r7, r8, r9, sl, fp, pc}
     f50:	f1ba 0f02 	cmp.w	sl, #2
     f54:	bf0c      	ite	eq
     f56:	f8d5 b004 	ldreq.w	fp, [r5, #4]
     f5a:	f8b5 b002 	ldrhne.w	fp, [r5, #2]
     f5e:	6ca2      	ldr	r2, [r4, #72]	; 0x48
     f60:	bf18      	it	ne
     f62:	882b      	ldrhne	r3, [r5, #0]
     f64:	9301      	str	r3, [sp, #4]
     f66:	bf0c      	ite	eq
     f68:	f105 0608 	addeq.w	r6, r5, #8
     f6c:	1d2e      	addne	r6, r5, #4
     f6e:	210f      	movs	r1, #15
     f70:	f02b 0501 	bic.w	r5, fp, #1
     f74:	4638      	mov	r0, r7
     f76:	4415      	add	r5, r2
     f78:	f7ff ff3a 	bl	df0 <_Unwind_GetGR>
     f7c:	4285      	cmp	r5, r0
     f7e:	9b01      	ldr	r3, [sp, #4]
     f80:	d829      	bhi.n	fd6 <__gnu_unwind_pr_common+0x11a>
     f82:	f023 0201 	bic.w	r2, r3, #1
     f86:	442a      	add	r2, r5
     f88:	4282      	cmp	r2, r0
     f8a:	bf94      	ite	ls
     f8c:	2200      	movls	r2, #0
     f8e:	2201      	movhi	r2, #1
     f90:	ea4f 004b 	mov.w	r0, fp, lsl #1
     f94:	f000 0002 	and.w	r0, r0, #2
     f98:	f003 0301 	and.w	r3, r3, #1
     f9c:	ea40 0503 	orr.w	r5, r0, r3
     fa0:	2d01      	cmp	r5, #1
     fa2:	d01a      	beq.n	fda <__gnu_unwind_pr_common+0x11e>
     fa4:	2d02      	cmp	r5, #2
     fa6:	d05e      	beq.n	1066 <CONFIG_FPROTECT_BLOCK_SIZE+0x66>
     fa8:	2d00      	cmp	r5, #0
     faa:	f040 80aa 	bne.w	1102 <CONFIG_FPROTECT_BLOCK_SIZE+0x102>
     fae:	1d35      	adds	r5, r6, #4
     fb0:	f1b9 0f00 	cmp.w	r9, #0
     fb4:	d0a1      	beq.n	efa <__gnu_unwind_pr_common+0x3e>
     fb6:	2a00      	cmp	r2, #0
     fb8:	d09f      	beq.n	efa <__gnu_unwind_pr_common+0x3e>
     fba:	4630      	mov	r0, r6
     fbc:	f7ff fd60 	bl	a80 <selfrel_offset31>
     fc0:	63a5      	str	r5, [r4, #56]	; 0x38
     fc2:	4606      	mov	r6, r0
     fc4:	4620      	mov	r0, r4
     fc6:	f3af 8000 	nop.w
     fca:	2800      	cmp	r0, #0
     fcc:	f000 8099 	beq.w	1102 <CONFIG_FPROTECT_BLOCK_SIZE+0x102>
     fd0:	4632      	mov	r2, r6
     fd2:	210f      	movs	r1, #15
     fd4:	e03f      	b.n	1056 <CONFIG_FPROTECT_BLOCK_SIZE+0x56>
     fd6:	2200      	movs	r2, #0
     fd8:	e7da      	b.n	f90 <__gnu_unwind_pr_common+0xd4>
     fda:	f1b9 0f00 	cmp.w	r9, #0
     fde:	d126      	bne.n	102e <CONFIG_FPROTECT_BLOCK_SIZE+0x2e>
     fe0:	2a00      	cmp	r2, #0
     fe2:	d03d      	beq.n	1060 <CONFIG_FPROTECT_BLOCK_SIZE+0x60>
     fe4:	6873      	ldr	r3, [r6, #4]
     fe6:	6832      	ldr	r2, [r6, #0]
     fe8:	1c99      	adds	r1, r3, #2
     fea:	ea4f 72d2 	mov.w	r2, r2, lsr #31
     fee:	f000 8088 	beq.w	1102 <CONFIG_FPROTECT_BLOCK_SIZE+0x102>
     ff2:	f104 0158 	add.w	r1, r4, #88	; 0x58
     ff6:	3301      	adds	r3, #1
     ff8:	9102      	str	r1, [sp, #8]
     ffa:	d009      	beq.n	1010 <CONFIG_FPROTECT_BLOCK_SIZE+0x10>
     ffc:	1d30      	adds	r0, r6, #4
     ffe:	f7ff fdf9 	bl	bf4 <_Unwind_decode_typeinfo_ptr.constprop.0>
    1002:	ab02      	add	r3, sp, #8
    1004:	4601      	mov	r1, r0
    1006:	4620      	mov	r0, r4
    1008:	f3af 8000 	nop.w
    100c:	4605      	mov	r5, r0
    100e:	b338      	cbz	r0, 1060 <CONFIG_FPROTECT_BLOCK_SIZE+0x60>
    1010:	210d      	movs	r1, #13
    1012:	4638      	mov	r0, r7
    1014:	f7ff feec 	bl	df0 <_Unwind_GetGR>
    1018:	2d02      	cmp	r5, #2
    101a:	9b02      	ldr	r3, [sp, #8]
    101c:	6220      	str	r0, [r4, #32]
    101e:	d102      	bne.n	1026 <CONFIG_FPROTECT_BLOCK_SIZE+0x26>
    1020:	62e3      	str	r3, [r4, #44]	; 0x2c
    1022:	f104 032c 	add.w	r3, r4, #44	; 0x2c
    1026:	e9c4 3609 	strd	r3, r6, [r4, #36]	; 0x24
    102a:	2006      	movs	r0, #6
    102c:	e78d      	b.n	f4a <__gnu_unwind_pr_common+0x8e>
    102e:	210d      	movs	r1, #13
    1030:	4638      	mov	r0, r7
    1032:	f7ff fedd 	bl	df0 <_Unwind_GetGR>
    1036:	6a25      	ldr	r5, [r4, #32]
    1038:	4285      	cmp	r5, r0
    103a:	d111      	bne.n	1060 <CONFIG_FPROTECT_BLOCK_SIZE+0x60>
    103c:	6aa3      	ldr	r3, [r4, #40]	; 0x28
    103e:	429e      	cmp	r6, r3
    1040:	d10e      	bne.n	1060 <CONFIG_FPROTECT_BLOCK_SIZE+0x60>
    1042:	4630      	mov	r0, r6
    1044:	f7ff fd1c 	bl	a80 <selfrel_offset31>
    1048:	210f      	movs	r1, #15
    104a:	4602      	mov	r2, r0
    104c:	4638      	mov	r0, r7
    104e:	f7ff fef3 	bl	e38 <_Unwind_SetGR>
    1052:	4622      	mov	r2, r4
    1054:	2100      	movs	r1, #0
    1056:	4638      	mov	r0, r7
    1058:	f7ff feee 	bl	e38 <_Unwind_SetGR>
    105c:	2007      	movs	r0, #7
    105e:	e774      	b.n	f4a <__gnu_unwind_pr_common+0x8e>
    1060:	f106 0508 	add.w	r5, r6, #8
    1064:	e749      	b.n	efa <__gnu_unwind_pr_common+0x3e>
    1066:	6835      	ldr	r5, [r6, #0]
    1068:	f025 4500 	bic.w	r5, r5, #2147483648	; 0x80000000
    106c:	f1b9 0f00 	cmp.w	r9, #0
    1070:	d12a      	bne.n	10c8 <CONFIG_FPROTECT_BLOCK_SIZE+0xc8>
    1072:	b1a2      	cbz	r2, 109e <CONFIG_FPROTECT_BLOCK_SIZE+0x9e>
    1074:	f1b8 0f00 	cmp.w	r8, #0
    1078:	d019      	beq.n	10ae <CONFIG_FPROTECT_BLOCK_SIZE+0xae>
    107a:	b985      	cbnz	r5, 109e <CONFIG_FPROTECT_BLOCK_SIZE+0x9e>
    107c:	46cb      	mov	fp, r9
    107e:	e017      	b.n	10b0 <CONFIG_FPROTECT_BLOCK_SIZE+0xb0>
    1080:	f10b 0b01 	add.w	fp, fp, #1
    1084:	9b01      	ldr	r3, [sp, #4]
    1086:	9302      	str	r3, [sp, #8]
    1088:	eb06 008b 	add.w	r0, r6, fp, lsl #2
    108c:	f7ff fdb2 	bl	bf4 <_Unwind_decode_typeinfo_ptr.constprop.0>
    1090:	2200      	movs	r2, #0
    1092:	4601      	mov	r1, r0
    1094:	ab02      	add	r3, sp, #8
    1096:	4620      	mov	r0, r4
    1098:	f3af 8000 	nop.w
    109c:	b158      	cbz	r0, 10b6 <CONFIG_FPROTECT_BLOCK_SIZE+0xb6>
    109e:	6833      	ldr	r3, [r6, #0]
    10a0:	2b00      	cmp	r3, #0
    10a2:	da00      	bge.n	10a6 <CONFIG_FPROTECT_BLOCK_SIZE+0xa6>
    10a4:	3604      	adds	r6, #4
    10a6:	3501      	adds	r5, #1
    10a8:	eb06 0585 	add.w	r5, r6, r5, lsl #2
    10ac:	e725      	b.n	efa <__gnu_unwind_pr_common+0x3e>
    10ae:	46c3      	mov	fp, r8
    10b0:	f104 0358 	add.w	r3, r4, #88	; 0x58
    10b4:	9301      	str	r3, [sp, #4]
    10b6:	45ab      	cmp	fp, r5
    10b8:	d1e2      	bne.n	1080 <CONFIG_FPROTECT_BLOCK_SIZE+0x80>
    10ba:	210d      	movs	r1, #13
    10bc:	4638      	mov	r0, r7
    10be:	f7ff fe97 	bl	df0 <_Unwind_GetGR>
    10c2:	9b02      	ldr	r3, [sp, #8]
    10c4:	6220      	str	r0, [r4, #32]
    10c6:	e7ae      	b.n	1026 <CONFIG_FPROTECT_BLOCK_SIZE+0x26>
    10c8:	210d      	movs	r1, #13
    10ca:	4638      	mov	r0, r7
    10cc:	f7ff fe90 	bl	df0 <_Unwind_GetGR>
    10d0:	f8d4 b020 	ldr.w	fp, [r4, #32]
    10d4:	4583      	cmp	fp, r0
    10d6:	d1e2      	bne.n	109e <CONFIG_FPROTECT_BLOCK_SIZE+0x9e>
    10d8:	6aa3      	ldr	r3, [r4, #40]	; 0x28
    10da:	429e      	cmp	r6, r3
    10dc:	d1df      	bne.n	109e <CONFIG_FPROTECT_BLOCK_SIZE+0x9e>
    10de:	f04f 0b00 	mov.w	fp, #0
    10e2:	2304      	movs	r3, #4
    10e4:	e9c4 b30b 	strd	fp, r3, [r4, #44]	; 0x2c
    10e8:	18f3      	adds	r3, r6, r3
    10ea:	62a5      	str	r5, [r4, #40]	; 0x28
    10ec:	6363      	str	r3, [r4, #52]	; 0x34
    10ee:	6833      	ldr	r3, [r6, #0]
    10f0:	455b      	cmp	r3, fp
    10f2:	da03      	bge.n	10fc <CONFIG_FPROTECT_BLOCK_SIZE+0xfc>
    10f4:	1c68      	adds	r0, r5, #1
    10f6:	eb06 0080 	add.w	r0, r6, r0, lsl #2
    10fa:	e7a3      	b.n	1044 <CONFIG_FPROTECT_BLOCK_SIZE+0x44>
    10fc:	2301      	movs	r3, #1
    10fe:	9300      	str	r3, [sp, #0]
    1100:	e7d1      	b.n	10a6 <CONFIG_FPROTECT_BLOCK_SIZE+0xa6>
    1102:	2009      	movs	r0, #9
    1104:	e721      	b.n	f4a <__gnu_unwind_pr_common+0x8e>
    1106:	bf00      	nop
    1108:	00000000 	.word	0x00000000

0000110c <__aeabi_unwind_cpp_pr0>:
    110c:	2300      	movs	r3, #0
    110e:	e6d5      	b.n	ebc <__gnu_unwind_pr_common>

00001110 <__aeabi_unwind_cpp_pr1>:
    1110:	2301      	movs	r3, #1
    1112:	e6d3      	b.n	ebc <__gnu_unwind_pr_common>

00001114 <__aeabi_unwind_cpp_pr2>:
    1114:	2302      	movs	r3, #2
    1116:	e6d1      	b.n	ebc <__gnu_unwind_pr_common>

00001118 <_Unwind_VRS_Pop>:
    1118:	e92d 41f0 	stmdb	sp!, {r4, r5, r6, r7, r8, lr}
    111c:	4605      	mov	r5, r0
    111e:	b0c2      	sub	sp, #264	; 0x108
    1120:	4614      	mov	r4, r2
    1122:	461e      	mov	r6, r3
    1124:	2904      	cmp	r1, #4
    1126:	d825      	bhi.n	1174 <_Unwind_VRS_Pop+0x5c>
    1128:	e8df f011 	tbh	[pc, r1, lsl #1]
    112c:	001c0005 	.word	0x001c0005
    1130:	00d60024 	.word	0x00d60024
    1134:	0104      	.short	0x0104
    1136:	b9ee      	cbnz	r6, 1174 <_Unwind_VRS_Pop+0x5c>
    1138:	6b83      	ldr	r3, [r0, #56]	; 0x38
    113a:	b292      	uxth	r2, r2
    113c:	2101      	movs	r1, #1
    113e:	3004      	adds	r0, #4
    1140:	fa01 f706 	lsl.w	r7, r1, r6
    1144:	4217      	tst	r7, r2
    1146:	bf1c      	itt	ne
    1148:	f853 7b04 	ldrne.w	r7, [r3], #4
    114c:	f840 7026 	strne.w	r7, [r0, r6, lsl #2]
    1150:	3601      	adds	r6, #1
    1152:	2e10      	cmp	r6, #16
    1154:	d1f4      	bne.n	1140 <_Unwind_VRS_Pop+0x28>
    1156:	04a6      	lsls	r6, r4, #18
    1158:	d400      	bmi.n	115c <_Unwind_VRS_Pop+0x44>
    115a:	63ab      	str	r3, [r5, #56]	; 0x38
    115c:	2000      	movs	r0, #0
    115e:	b042      	add	sp, #264	; 0x108
    1160:	e8bd 81f0 	ldmia.w	sp!, {r4, r5, r6, r7, r8, pc}
    1164:	2e01      	cmp	r6, #1
    1166:	ea4f 4712 	mov.w	r7, r2, lsr #16
    116a:	b294      	uxth	r4, r2
    116c:	d104      	bne.n	1178 <_Unwind_VRS_Pop+0x60>
    116e:	193b      	adds	r3, r7, r4
    1170:	2b10      	cmp	r3, #16
    1172:	d941      	bls.n	11f8 <_Unwind_VRS_Pop+0xe0>
    1174:	2002      	movs	r0, #2
    1176:	e7f2      	b.n	115e <_Unwind_VRS_Pop+0x46>
    1178:	2e05      	cmp	r6, #5
    117a:	d1fb      	bne.n	1174 <_Unwind_VRS_Pop+0x5c>
    117c:	eb07 0804 	add.w	r8, r7, r4
    1180:	f1b8 0f20 	cmp.w	r8, #32
    1184:	d8f6      	bhi.n	1174 <_Unwind_VRS_Pop+0x5c>
    1186:	2f0f      	cmp	r7, #15
    1188:	d94d      	bls.n	1226 <_Unwind_VRS_Pop+0x10e>
    118a:	2c00      	cmp	r4, #0
    118c:	d0e6      	beq.n	115c <_Unwind_VRS_Pop+0x44>
    118e:	6803      	ldr	r3, [r0, #0]
    1190:	0758      	lsls	r0, r3, #29
    1192:	46a0      	mov	r8, r4
    1194:	d508      	bpl.n	11a8 <_Unwind_VRS_Pop+0x90>
    1196:	4628      	mov	r0, r5
    1198:	f023 0304 	bic.w	r3, r3, #4
    119c:	f840 3bd0 	str.w	r3, [r0], #208
    11a0:	f000 f910 	bl	13c4 <__gnu_Unwind_Save_VFP_D_16_to_31>
    11a4:	2f0f      	cmp	r7, #15
    11a6:	d948      	bls.n	123a <_Unwind_VRS_Pop+0x122>
    11a8:	4668      	mov	r0, sp
    11aa:	f000 f90b 	bl	13c4 <__gnu_Unwind_Save_VFP_D_16_to_31>
    11ae:	6bab      	ldr	r3, [r5, #56]	; 0x38
    11b0:	2f10      	cmp	r7, #16
    11b2:	463a      	mov	r2, r7
    11b4:	a942      	add	r1, sp, #264	; 0x108
    11b6:	bf38      	it	cc
    11b8:	2210      	movcc	r2, #16
    11ba:	eb01 02c2 	add.w	r2, r1, r2, lsl #3
    11be:	ea4f 0848 	mov.w	r8, r8, lsl #1
    11c2:	f5a2 72c4 	sub.w	r2, r2, #392	; 0x188
    11c6:	f108 38ff 	add.w	r8, r8, #4294967295	; 0xffffffff
    11ca:	1f10      	subs	r0, r2, #4
    11cc:	ea4f 0188 	mov.w	r1, r8, lsl #2
    11d0:	eb02 0288 	add.w	r2, r2, r8, lsl #2
    11d4:	461c      	mov	r4, r3
    11d6:	f854 cb04 	ldr.w	ip, [r4], #4
    11da:	f840 cf04 	str.w	ip, [r0, #4]!
    11de:	4282      	cmp	r2, r0
    11e0:	d1f9      	bne.n	11d6 <_Unwind_VRS_Pop+0xbe>
    11e2:	1d0a      	adds	r2, r1, #4
    11e4:	2e01      	cmp	r6, #1
    11e6:	4413      	add	r3, r2
    11e8:	d017      	beq.n	121a <_Unwind_VRS_Pop+0x102>
    11ea:	2f0f      	cmp	r7, #15
    11ec:	63ab      	str	r3, [r5, #56]	; 0x38
    11ee:	d96f      	bls.n	12d0 <_Unwind_VRS_Pop+0x1b8>
    11f0:	4668      	mov	r0, sp
    11f2:	f000 f8e3 	bl	13bc <__gnu_Unwind_Restore_VFP_D_16_to_31>
    11f6:	e7b1      	b.n	115c <_Unwind_VRS_Pop+0x44>
    11f8:	2f10      	cmp	r7, #16
    11fa:	d0bb      	beq.n	1174 <_Unwind_VRS_Pop+0x5c>
    11fc:	6803      	ldr	r3, [r0, #0]
    11fe:	07da      	lsls	r2, r3, #31
    1200:	d505      	bpl.n	120e <_Unwind_VRS_Pop+0xf6>
    1202:	f023 0303 	bic.w	r3, r3, #3
    1206:	f840 3b48 	str.w	r3, [r0], #72
    120a:	f000 f8cb 	bl	13a4 <__gnu_Unwind_Save_VFP>
    120e:	a820      	add	r0, sp, #128	; 0x80
    1210:	f000 f8c8 	bl	13a4 <__gnu_Unwind_Save_VFP>
    1214:	6bab      	ldr	r3, [r5, #56]	; 0x38
    1216:	2c00      	cmp	r4, #0
    1218:	d13f      	bne.n	129a <_Unwind_VRS_Pop+0x182>
    121a:	3304      	adds	r3, #4
    121c:	63ab      	str	r3, [r5, #56]	; 0x38
    121e:	a820      	add	r0, sp, #128	; 0x80
    1220:	f000 f8bc 	bl	139c <__gnu_Unwind_Restore_VFP>
    1224:	e79a      	b.n	115c <_Unwind_VRS_Pop+0x44>
    1226:	f1b8 0f10 	cmp.w	r8, #16
    122a:	6803      	ldr	r3, [r0, #0]
    122c:	d92d      	bls.n	128a <_Unwind_VRS_Pop+0x172>
    122e:	07dc      	lsls	r4, r3, #31
    1230:	f1a8 0810 	sub.w	r8, r8, #16
    1234:	d442      	bmi.n	12bc <_Unwind_VRS_Pop+0x1a4>
    1236:	0758      	lsls	r0, r3, #29
    1238:	d4ad      	bmi.n	1196 <_Unwind_VRS_Pop+0x7e>
    123a:	a820      	add	r0, sp, #128	; 0x80
    123c:	f000 f8ba 	bl	13b4 <__gnu_Unwind_Save_VFP_D>
    1240:	f1c7 0410 	rsb	r4, r7, #16
    1244:	4668      	mov	r0, sp
    1246:	f000 f8bd 	bl	13c4 <__gnu_Unwind_Save_VFP_D_16_to_31>
    124a:	0064      	lsls	r4, r4, #1
    124c:	aa20      	add	r2, sp, #128	; 0x80
    124e:	6bab      	ldr	r3, [r5, #56]	; 0x38
    1250:	eb02 02c7 	add.w	r2, r2, r7, lsl #3
    1254:	3c01      	subs	r4, #1
    1256:	1f10      	subs	r0, r2, #4
    1258:	00a1      	lsls	r1, r4, #2
    125a:	eb02 0284 	add.w	r2, r2, r4, lsl #2
    125e:	461c      	mov	r4, r3
    1260:	f854 cb04 	ldr.w	ip, [r4], #4
    1264:	f840 cf04 	str.w	ip, [r0, #4]!
    1268:	4290      	cmp	r0, r2
    126a:	d1f9      	bne.n	1260 <_Unwind_VRS_Pop+0x148>
    126c:	1d0a      	adds	r2, r1, #4
    126e:	4413      	add	r3, r2
    1270:	f1b8 0f00 	cmp.w	r8, #0
    1274:	d19c      	bne.n	11b0 <_Unwind_VRS_Pop+0x98>
    1276:	2e01      	cmp	r6, #1
    1278:	d0cf      	beq.n	121a <_Unwind_VRS_Pop+0x102>
    127a:	2f0f      	cmp	r7, #15
    127c:	63ab      	str	r3, [r5, #56]	; 0x38
    127e:	f63f af6d 	bhi.w	115c <_Unwind_VRS_Pop+0x44>
    1282:	a820      	add	r0, sp, #128	; 0x80
    1284:	f000 f892 	bl	13ac <__gnu_Unwind_Restore_VFP_D>
    1288:	e768      	b.n	115c <_Unwind_VRS_Pop+0x44>
    128a:	07d9      	lsls	r1, r3, #31
    128c:	d40d      	bmi.n	12aa <_Unwind_VRS_Pop+0x192>
    128e:	a820      	add	r0, sp, #128	; 0x80
    1290:	f000 f890 	bl	13b4 <__gnu_Unwind_Save_VFP_D>
    1294:	6bab      	ldr	r3, [r5, #56]	; 0x38
    1296:	2c00      	cmp	r4, #0
    1298:	d0f3      	beq.n	1282 <_Unwind_VRS_Pop+0x16a>
    129a:	0064      	lsls	r4, r4, #1
    129c:	aa20      	add	r2, sp, #128	; 0x80
    129e:	eb02 02c7 	add.w	r2, r2, r7, lsl #3
    12a2:	3c01      	subs	r4, #1
    12a4:	f04f 0800 	mov.w	r8, #0
    12a8:	e7d5      	b.n	1256 <_Unwind_VRS_Pop+0x13e>
    12aa:	f023 0301 	bic.w	r3, r3, #1
    12ae:	f043 0302 	orr.w	r3, r3, #2
    12b2:	f840 3b48 	str.w	r3, [r0], #72
    12b6:	f000 f87d 	bl	13b4 <__gnu_Unwind_Save_VFP_D>
    12ba:	e7e8      	b.n	128e <_Unwind_VRS_Pop+0x176>
    12bc:	f023 0301 	bic.w	r3, r3, #1
    12c0:	f043 0302 	orr.w	r3, r3, #2
    12c4:	f840 3b48 	str.w	r3, [r0], #72
    12c8:	f000 f874 	bl	13b4 <__gnu_Unwind_Save_VFP_D>
    12cc:	682b      	ldr	r3, [r5, #0]
    12ce:	e7b2      	b.n	1236 <_Unwind_VRS_Pop+0x11e>
    12d0:	a820      	add	r0, sp, #128	; 0x80
    12d2:	f000 f86b 	bl	13ac <__gnu_Unwind_Restore_VFP_D>
    12d6:	e78b      	b.n	11f0 <_Unwind_VRS_Pop+0xd8>
    12d8:	2e03      	cmp	r6, #3
    12da:	f47f af4b 	bne.w	1174 <_Unwind_VRS_Pop+0x5c>
    12de:	b297      	uxth	r7, r2
    12e0:	eb07 4412 	add.w	r4, r7, r2, lsr #16
    12e4:	2c10      	cmp	r4, #16
    12e6:	ea4f 4612 	mov.w	r6, r2, lsr #16
    12ea:	f63f af43 	bhi.w	1174 <_Unwind_VRS_Pop+0x5c>
    12ee:	6803      	ldr	r3, [r0, #0]
    12f0:	0719      	lsls	r1, r3, #28
    12f2:	d506      	bpl.n	1302 <_Unwind_VRS_Pop+0x1ea>
    12f4:	f023 0308 	bic.w	r3, r3, #8
    12f8:	6003      	str	r3, [r0, #0]
    12fa:	f500 70a8 	add.w	r0, r0, #336	; 0x150
    12fe:	f000 f887 	bl	1410 <__gnu_Unwind_Save_WMMXD>
    1302:	a820      	add	r0, sp, #128	; 0x80
    1304:	f000 f884 	bl	1410 <__gnu_Unwind_Save_WMMXD>
    1308:	6baa      	ldr	r2, [r5, #56]	; 0x38
    130a:	ab20      	add	r3, sp, #128	; 0x80
    130c:	eb03 03c6 	add.w	r3, r3, r6, lsl #3
    1310:	00f9      	lsls	r1, r7, #3
    1312:	1ad4      	subs	r4, r2, r3
    1314:	eb03 07c7 	add.w	r7, r3, r7, lsl #3
    1318:	42bb      	cmp	r3, r7
    131a:	eb03 0004 	add.w	r0, r3, r4
    131e:	d105      	bne.n	132c <_Unwind_VRS_Pop+0x214>
    1320:	440a      	add	r2, r1
    1322:	63aa      	str	r2, [r5, #56]	; 0x38
    1324:	a820      	add	r0, sp, #128	; 0x80
    1326:	f000 f851 	bl	13cc <__gnu_Unwind_Restore_WMMXD>
    132a:	e717      	b.n	115c <_Unwind_VRS_Pop+0x44>
    132c:	6800      	ldr	r0, [r0, #0]
    132e:	f843 0b04 	str.w	r0, [r3], #4
    1332:	e7f1      	b.n	1318 <_Unwind_VRS_Pop+0x200>
    1334:	2e00      	cmp	r6, #0
    1336:	f47f af1d 	bne.w	1174 <_Unwind_VRS_Pop+0x5c>
    133a:	2a10      	cmp	r2, #16
    133c:	f63f af1a 	bhi.w	1174 <_Unwind_VRS_Pop+0x5c>
    1340:	6803      	ldr	r3, [r0, #0]
    1342:	06da      	lsls	r2, r3, #27
    1344:	d506      	bpl.n	1354 <_Unwind_VRS_Pop+0x23c>
    1346:	f023 0310 	bic.w	r3, r3, #16
    134a:	6003      	str	r3, [r0, #0]
    134c:	f500 70e8 	add.w	r0, r0, #464	; 0x1d0
    1350:	f000 f88a 	bl	1468 <__gnu_Unwind_Save_WMMXC>
    1354:	ae20      	add	r6, sp, #128	; 0x80
    1356:	4630      	mov	r0, r6
    1358:	f000 f886 	bl	1468 <__gnu_Unwind_Save_WMMXC>
    135c:	6bab      	ldr	r3, [r5, #56]	; 0x38
    135e:	2200      	movs	r2, #0
    1360:	2101      	movs	r1, #1
    1362:	fa01 f002 	lsl.w	r0, r1, r2
    1366:	4220      	tst	r0, r4
    1368:	bf1c      	itt	ne
    136a:	f853 0b04 	ldrne.w	r0, [r3], #4
    136e:	f846 0022 	strne.w	r0, [r6, r2, lsl #2]
    1372:	3201      	adds	r2, #1
    1374:	2a04      	cmp	r2, #4
    1376:	d1f4      	bne.n	1362 <_Unwind_VRS_Pop+0x24a>
    1378:	63ab      	str	r3, [r5, #56]	; 0x38
    137a:	4630      	mov	r0, r6
    137c:	f000 f86a 	bl	1454 <__gnu_Unwind_Restore_WMMXC>
    1380:	e6ec      	b.n	115c <_Unwind_VRS_Pop+0x44>
    1382:	bf00      	nop

00001384 <__restore_core_regs>:
    1384:	f100 0134 	add.w	r1, r0, #52	; 0x34
    1388:	e891 0038 	ldmia.w	r1, {r3, r4, r5}
    138c:	469c      	mov	ip, r3
    138e:	46a6      	mov	lr, r4
    1390:	f84c 5d04 	str.w	r5, [ip, #-4]!
    1394:	e890 0fff 	ldmia.w	r0, {r0, r1, r2, r3, r4, r5, r6, r7, r8, r9, sl, fp}
    1398:	46e5      	mov	sp, ip
    139a:	bd00      	pop	{pc}

0000139c <__gnu_Unwind_Restore_VFP>:
    139c:	ec90 0b21 	fldmiax	r0, {d0-d15}	;@ Deprecated
    13a0:	4770      	bx	lr
    13a2:	bf00      	nop

000013a4 <__gnu_Unwind_Save_VFP>:
    13a4:	ec80 0b21 	fstmiax	r0, {d0-d15}	;@ Deprecated
    13a8:	4770      	bx	lr
    13aa:	bf00      	nop

000013ac <__gnu_Unwind_Restore_VFP_D>:
    13ac:	ec90 0b20 	vldmia	r0, {d0-d15}
    13b0:	4770      	bx	lr
    13b2:	bf00      	nop

000013b4 <__gnu_Unwind_Save_VFP_D>:
    13b4:	ec80 0b20 	vstmia	r0, {d0-d15}
    13b8:	4770      	bx	lr
    13ba:	bf00      	nop

000013bc <__gnu_Unwind_Restore_VFP_D_16_to_31>:
    13bc:	ecd0 0b20 	vldmia	r0, {d16-d31}
    13c0:	4770      	bx	lr
    13c2:	bf00      	nop

000013c4 <__gnu_Unwind_Save_VFP_D_16_to_31>:
    13c4:	ecc0 0b20 	vstmia	r0, {d16-d31}
    13c8:	4770      	bx	lr
    13ca:	bf00      	nop

000013cc <__gnu_Unwind_Restore_WMMXD>:
    13cc:	ecf0 0102 	ldfe	f0, [r0], #8
    13d0:	ecf0 1102 	ldfe	f1, [r0], #8
    13d4:	ecf0 2102 	ldfe	f2, [r0], #8
    13d8:	ecf0 3102 	ldfe	f3, [r0], #8
    13dc:	ecf0 4102 	ldfe	f4, [r0], #8
    13e0:	ecf0 5102 	ldfe	f5, [r0], #8
    13e4:	ecf0 6102 	ldfe	f6, [r0], #8
    13e8:	ecf0 7102 	ldfe	f7, [r0], #8
    13ec:	ecf0 8102 	ldfp	f0, [r0], #8
    13f0:	ecf0 9102 	ldfp	f1, [r0], #8
    13f4:	ecf0 a102 	ldfp	f2, [r0], #8
    13f8:	ecf0 b102 	ldfp	f3, [r0], #8
    13fc:	ecf0 c102 	ldfp	f4, [r0], #8
    1400:	ecf0 d102 	ldfp	f5, [r0], #8
    1404:	ecf0 e102 	ldfp	f6, [r0], #8
    1408:	ecf0 f102 	ldfp	f7, [r0], #8
    140c:	4770      	bx	lr
    140e:	bf00      	nop

00001410 <__gnu_Unwind_Save_WMMXD>:
    1410:	ece0 0102 	stfe	f0, [r0], #8
    1414:	ece0 1102 	stfe	f1, [r0], #8
    1418:	ece0 2102 	stfe	f2, [r0], #8
    141c:	ece0 3102 	stfe	f3, [r0], #8
    1420:	ece0 4102 	stfe	f4, [r0], #8
    1424:	ece0 5102 	stfe	f5, [r0], #8
    1428:	ece0 6102 	stfe	f6, [r0], #8
    142c:	ece0 7102 	stfe	f7, [r0], #8
    1430:	ece0 8102 	stfp	f0, [r0], #8
    1434:	ece0 9102 	stfp	f1, [r0], #8
    1438:	ece0 a102 	stfp	f2, [r0], #8
    143c:	ece0 b102 	stfp	f3, [r0], #8
    1440:	ece0 c102 	stfp	f4, [r0], #8
    1444:	ece0 d102 	stfp	f5, [r0], #8
    1448:	ece0 e102 	stfp	f6, [r0], #8
    144c:	ece0 f102 	stfp	f7, [r0], #8
    1450:	4770      	bx	lr
    1452:	bf00      	nop

00001454 <__gnu_Unwind_Restore_WMMXC>:
    1454:	fcb0 8101 	ldc2	1, cr8, [r0], #4
    1458:	fcb0 9101 	ldc2	1, cr9, [r0], #4
    145c:	fcb0 a101 	ldc2	1, cr10, [r0], #4
    1460:	fcb0 b101 	ldc2	1, cr11, [r0], #4
    1464:	4770      	bx	lr
    1466:	bf00      	nop

00001468 <__gnu_Unwind_Save_WMMXC>:
    1468:	fca0 8101 	stc2	1, cr8, [r0], #4
    146c:	fca0 9101 	stc2	1, cr9, [r0], #4
    1470:	fca0 a101 	stc2	1, cr10, [r0], #4
    1474:	fca0 b101 	stc2	1, cr11, [r0], #4
    1478:	4770      	bx	lr
    147a:	bf00      	nop

0000147c <_Unwind_RaiseException>:
    147c:	46ec      	mov	ip, sp
    147e:	b500      	push	{lr}
    1480:	e92d 5000 	stmdb	sp!, {ip, lr}
    1484:	e92d 1fff 	stmdb	sp!, {r0, r1, r2, r3, r4, r5, r6, r7, r8, r9, sl, fp, ip}
    1488:	f04f 0300 	mov.w	r3, #0
    148c:	e92d 000c 	stmdb	sp!, {r2, r3}
    1490:	a901      	add	r1, sp, #4
    1492:	f7ff fc31 	bl	cf8 <__gnu_Unwind_RaiseException>
    1496:	f8dd e040 	ldr.w	lr, [sp, #64]	; 0x40
    149a:	b012      	add	sp, #72	; 0x48
    149c:	4770      	bx	lr
    149e:	bf00      	nop

000014a0 <_Unwind_Resume>:
    14a0:	46ec      	mov	ip, sp
    14a2:	b500      	push	{lr}
    14a4:	e92d 5000 	stmdb	sp!, {ip, lr}
    14a8:	e92d 1fff 	stmdb	sp!, {r0, r1, r2, r3, r4, r5, r6, r7, r8, r9, sl, fp, ip}
    14ac:	f04f 0300 	mov.w	r3, #0
    14b0:	e92d 000c 	stmdb	sp!, {r2, r3}
    14b4:	a901      	add	r1, sp, #4
    14b6:	f7ff fc55 	bl	d64 <__gnu_Unwind_Resume>
    14ba:	f8dd e040 	ldr.w	lr, [sp, #64]	; 0x40
    14be:	b012      	add	sp, #72	; 0x48
    14c0:	4770      	bx	lr
    14c2:	bf00      	nop

000014c4 <_Unwind_Resume_or_Rethrow>:
    14c4:	46ec      	mov	ip, sp
    14c6:	b500      	push	{lr}
    14c8:	e92d 5000 	stmdb	sp!, {ip, lr}
    14cc:	e92d 1fff 	stmdb	sp!, {r0, r1, r2, r3, r4, r5, r6, r7, r8, r9, sl, fp, ip}
    14d0:	f04f 0300 	mov.w	r3, #0
    14d4:	e92d 000c 	stmdb	sp!, {r2, r3}
    14d8:	a901      	add	r1, sp, #4
    14da:	f7ff fc63 	bl	da4 <__gnu_Unwind_Resume_or_Rethrow>
    14de:	f8dd e040 	ldr.w	lr, [sp, #64]	; 0x40
    14e2:	b012      	add	sp, #72	; 0x48
    14e4:	4770      	bx	lr
    14e6:	bf00      	nop

000014e8 <_Unwind_ForcedUnwind>:
    14e8:	46ec      	mov	ip, sp
    14ea:	b500      	push	{lr}
    14ec:	e92d 5000 	stmdb	sp!, {ip, lr}
    14f0:	e92d 1fff 	stmdb	sp!, {r0, r1, r2, r3, r4, r5, r6, r7, r8, r9, sl, fp, ip}
    14f4:	f04f 0300 	mov.w	r3, #0
    14f8:	e92d 000c 	stmdb	sp!, {r2, r3}
    14fc:	ab01      	add	r3, sp, #4
    14fe:	f7ff fc28 	bl	d52 <__gnu_Unwind_ForcedUnwind>
    1502:	f8dd e040 	ldr.w	lr, [sp, #64]	; 0x40
    1506:	b012      	add	sp, #72	; 0x48
    1508:	4770      	bx	lr
    150a:	bf00      	nop

0000150c <_Unwind_Backtrace>:
    150c:	46ec      	mov	ip, sp
    150e:	b500      	push	{lr}
    1510:	e92d 5000 	stmdb	sp!, {ip, lr}
    1514:	e92d 1fff 	stmdb	sp!, {r0, r1, r2, r3, r4, r5, r6, r7, r8, r9, sl, fp, ip}
    1518:	f04f 0300 	mov.w	r3, #0
    151c:	e92d 000c 	stmdb	sp!, {r2, r3}
    1520:	aa01      	add	r2, sp, #4
    1522:	f7ff fc95 	bl	e50 <__gnu_Unwind_Backtrace>
    1526:	f8dd e040 	ldr.w	lr, [sp, #64]	; 0x40
    152a:	b012      	add	sp, #72	; 0x48
    152c:	4770      	bx	lr
    152e:	bf00      	nop

00001530 <__aeabi_idiv0>:
    1530:	4770      	bx	lr
    1532:	bf00      	nop

00001534 <__udivmoddi4>:
    1534:	e92d 47f0 	stmdb	sp!, {r4, r5, r6, r7, r8, r9, sl, lr}
    1538:	4686      	mov	lr, r0
    153a:	468c      	mov	ip, r1
    153c:	4608      	mov	r0, r1
    153e:	9e08      	ldr	r6, [sp, #32]
    1540:	4615      	mov	r5, r2
    1542:	4674      	mov	r4, lr
    1544:	4619      	mov	r1, r3
    1546:	2b00      	cmp	r3, #0
    1548:	f040 80c2 	bne.w	16d0 <__udivmoddi4+0x19c>
    154c:	4285      	cmp	r5, r0
    154e:	fab2 f282 	clz	r2, r2
    1552:	d945      	bls.n	15e0 <__udivmoddi4+0xac>
    1554:	b14a      	cbz	r2, 156a <__udivmoddi4+0x36>
    1556:	f1c2 0320 	rsb	r3, r2, #32
    155a:	fa00 fc02 	lsl.w	ip, r0, r2
    155e:	fa2e f303 	lsr.w	r3, lr, r3
    1562:	4095      	lsls	r5, r2
    1564:	ea43 0c0c 	orr.w	ip, r3, ip
    1568:	4094      	lsls	r4, r2
    156a:	ea4f 4e15 	mov.w	lr, r5, lsr #16
    156e:	b2a8      	uxth	r0, r5
    1570:	fbbc f8fe 	udiv	r8, ip, lr
    1574:	0c23      	lsrs	r3, r4, #16
    1576:	fb0e cc18 	mls	ip, lr, r8, ip
    157a:	fb08 f900 	mul.w	r9, r8, r0
    157e:	ea43 430c 	orr.w	r3, r3, ip, lsl #16
    1582:	4599      	cmp	r9, r3
    1584:	d928      	bls.n	15d8 <__udivmoddi4+0xa4>
    1586:	18eb      	adds	r3, r5, r3
    1588:	f108 37ff 	add.w	r7, r8, #4294967295	; 0xffffffff
    158c:	d204      	bcs.n	1598 <__udivmoddi4+0x64>
    158e:	4599      	cmp	r9, r3
    1590:	d902      	bls.n	1598 <__udivmoddi4+0x64>
    1592:	f1a8 0702 	sub.w	r7, r8, #2
    1596:	442b      	add	r3, r5
    1598:	eba3 0309 	sub.w	r3, r3, r9
    159c:	b2a4      	uxth	r4, r4
    159e:	fbb3 fcfe 	udiv	ip, r3, lr
    15a2:	fb0e 331c 	mls	r3, lr, ip, r3
    15a6:	fb0c f000 	mul.w	r0, ip, r0
    15aa:	ea44 4403 	orr.w	r4, r4, r3, lsl #16
    15ae:	42a0      	cmp	r0, r4
    15b0:	d914      	bls.n	15dc <__udivmoddi4+0xa8>
    15b2:	192c      	adds	r4, r5, r4
    15b4:	f10c 33ff 	add.w	r3, ip, #4294967295	; 0xffffffff
    15b8:	d204      	bcs.n	15c4 <__udivmoddi4+0x90>
    15ba:	42a0      	cmp	r0, r4
    15bc:	d902      	bls.n	15c4 <__udivmoddi4+0x90>
    15be:	f1ac 0302 	sub.w	r3, ip, #2
    15c2:	442c      	add	r4, r5
    15c4:	1a24      	subs	r4, r4, r0
    15c6:	ea43 4007 	orr.w	r0, r3, r7, lsl #16
    15ca:	b11e      	cbz	r6, 15d4 <__udivmoddi4+0xa0>
    15cc:	40d4      	lsrs	r4, r2
    15ce:	2300      	movs	r3, #0
    15d0:	6034      	str	r4, [r6, #0]
    15d2:	6073      	str	r3, [r6, #4]
    15d4:	e8bd 87f0 	ldmia.w	sp!, {r4, r5, r6, r7, r8, r9, sl, pc}
    15d8:	4647      	mov	r7, r8
    15da:	e7dd      	b.n	1598 <__udivmoddi4+0x64>
    15dc:	4663      	mov	r3, ip
    15de:	e7f1      	b.n	15c4 <__udivmoddi4+0x90>
    15e0:	bb92      	cbnz	r2, 1648 <__udivmoddi4+0x114>
    15e2:	1b43      	subs	r3, r0, r5
    15e4:	2101      	movs	r1, #1
    15e6:	ea4f 4e15 	mov.w	lr, r5, lsr #16
    15ea:	b2af      	uxth	r7, r5
    15ec:	fbb3 fcfe 	udiv	ip, r3, lr
    15f0:	0c20      	lsrs	r0, r4, #16
    15f2:	fb0e 331c 	mls	r3, lr, ip, r3
    15f6:	fb0c f807 	mul.w	r8, ip, r7
    15fa:	ea40 4303 	orr.w	r3, r0, r3, lsl #16
    15fe:	4598      	cmp	r8, r3
    1600:	d962      	bls.n	16c8 <__udivmoddi4+0x194>
    1602:	18eb      	adds	r3, r5, r3
    1604:	f10c 30ff 	add.w	r0, ip, #4294967295	; 0xffffffff
    1608:	d204      	bcs.n	1614 <__udivmoddi4+0xe0>
    160a:	4598      	cmp	r8, r3
    160c:	d902      	bls.n	1614 <__udivmoddi4+0xe0>
    160e:	f1ac 0002 	sub.w	r0, ip, #2
    1612:	442b      	add	r3, r5
    1614:	eba3 0308 	sub.w	r3, r3, r8
    1618:	b2a4      	uxth	r4, r4
    161a:	fbb3 fcfe 	udiv	ip, r3, lr
    161e:	fb0e 331c 	mls	r3, lr, ip, r3
    1622:	fb0c f707 	mul.w	r7, ip, r7
    1626:	ea44 4403 	orr.w	r4, r4, r3, lsl #16
    162a:	42a7      	cmp	r7, r4
    162c:	d94e      	bls.n	16cc <__udivmoddi4+0x198>
    162e:	192c      	adds	r4, r5, r4
    1630:	f10c 33ff 	add.w	r3, ip, #4294967295	; 0xffffffff
    1634:	d204      	bcs.n	1640 <__udivmoddi4+0x10c>
    1636:	42a7      	cmp	r7, r4
    1638:	d902      	bls.n	1640 <__udivmoddi4+0x10c>
    163a:	f1ac 0302 	sub.w	r3, ip, #2
    163e:	442c      	add	r4, r5
    1640:	1be4      	subs	r4, r4, r7
    1642:	ea43 4000 	orr.w	r0, r3, r0, lsl #16
    1646:	e7c0      	b.n	15ca <__udivmoddi4+0x96>
    1648:	f1c2 0320 	rsb	r3, r2, #32
    164c:	fa20 f103 	lsr.w	r1, r0, r3
    1650:	4095      	lsls	r5, r2
    1652:	4090      	lsls	r0, r2
    1654:	fa2e f303 	lsr.w	r3, lr, r3
    1658:	4303      	orrs	r3, r0
    165a:	ea4f 4e15 	mov.w	lr, r5, lsr #16
    165e:	b2af      	uxth	r7, r5
    1660:	fbb1 fcfe 	udiv	ip, r1, lr
    1664:	fb0e 101c 	mls	r0, lr, ip, r1
    1668:	0c19      	lsrs	r1, r3, #16
    166a:	fb0c f807 	mul.w	r8, ip, r7
    166e:	ea41 4100 	orr.w	r1, r1, r0, lsl #16
    1672:	4588      	cmp	r8, r1
    1674:	fa04 f402 	lsl.w	r4, r4, r2
    1678:	d922      	bls.n	16c0 <__udivmoddi4+0x18c>
    167a:	1869      	adds	r1, r5, r1
    167c:	f10c 30ff 	add.w	r0, ip, #4294967295	; 0xffffffff
    1680:	d204      	bcs.n	168c <__udivmoddi4+0x158>
    1682:	4588      	cmp	r8, r1
    1684:	d902      	bls.n	168c <__udivmoddi4+0x158>
    1686:	f1ac 0002 	sub.w	r0, ip, #2
    168a:	4429      	add	r1, r5
    168c:	eba1 0108 	sub.w	r1, r1, r8
    1690:	b29b      	uxth	r3, r3
    1692:	fbb1 fcfe 	udiv	ip, r1, lr
    1696:	fb0e 111c 	mls	r1, lr, ip, r1
    169a:	fb0c f707 	mul.w	r7, ip, r7
    169e:	ea43 4301 	orr.w	r3, r3, r1, lsl #16
    16a2:	429f      	cmp	r7, r3
    16a4:	d90e      	bls.n	16c4 <__udivmoddi4+0x190>
    16a6:	18eb      	adds	r3, r5, r3
    16a8:	f10c 31ff 	add.w	r1, ip, #4294967295	; 0xffffffff
    16ac:	d204      	bcs.n	16b8 <__udivmoddi4+0x184>
    16ae:	429f      	cmp	r7, r3
    16b0:	d902      	bls.n	16b8 <__udivmoddi4+0x184>
    16b2:	f1ac 0102 	sub.w	r1, ip, #2
    16b6:	442b      	add	r3, r5
    16b8:	1bdb      	subs	r3, r3, r7
    16ba:	ea41 4100 	orr.w	r1, r1, r0, lsl #16
    16be:	e792      	b.n	15e6 <__udivmoddi4+0xb2>
    16c0:	4660      	mov	r0, ip
    16c2:	e7e3      	b.n	168c <__udivmoddi4+0x158>
    16c4:	4661      	mov	r1, ip
    16c6:	e7f7      	b.n	16b8 <__udivmoddi4+0x184>
    16c8:	4660      	mov	r0, ip
    16ca:	e7a3      	b.n	1614 <__udivmoddi4+0xe0>
    16cc:	4663      	mov	r3, ip
    16ce:	e7b7      	b.n	1640 <__udivmoddi4+0x10c>
    16d0:	4283      	cmp	r3, r0
    16d2:	d906      	bls.n	16e2 <__udivmoddi4+0x1ae>
    16d4:	b916      	cbnz	r6, 16dc <__udivmoddi4+0x1a8>
    16d6:	2100      	movs	r1, #0
    16d8:	4608      	mov	r0, r1
    16da:	e77b      	b.n	15d4 <__udivmoddi4+0xa0>
    16dc:	e9c6 e000 	strd	lr, r0, [r6]
    16e0:	e7f9      	b.n	16d6 <__udivmoddi4+0x1a2>
    16e2:	fab3 f783 	clz	r7, r3
    16e6:	b98f      	cbnz	r7, 170c <__udivmoddi4+0x1d8>
    16e8:	4283      	cmp	r3, r0
    16ea:	d301      	bcc.n	16f0 <__udivmoddi4+0x1bc>
    16ec:	4572      	cmp	r2, lr
    16ee:	d808      	bhi.n	1702 <__udivmoddi4+0x1ce>
    16f0:	ebbe 0402 	subs.w	r4, lr, r2
    16f4:	eb60 0303 	sbc.w	r3, r0, r3
    16f8:	2001      	movs	r0, #1
    16fa:	469c      	mov	ip, r3
    16fc:	b91e      	cbnz	r6, 1706 <__udivmoddi4+0x1d2>
    16fe:	2100      	movs	r1, #0
    1700:	e768      	b.n	15d4 <__udivmoddi4+0xa0>
    1702:	4638      	mov	r0, r7
    1704:	e7fa      	b.n	16fc <__udivmoddi4+0x1c8>
    1706:	e9c6 4c00 	strd	r4, ip, [r6]
    170a:	e7f8      	b.n	16fe <__udivmoddi4+0x1ca>
    170c:	f1c7 0c20 	rsb	ip, r7, #32
    1710:	40bb      	lsls	r3, r7
    1712:	fa22 f40c 	lsr.w	r4, r2, ip
    1716:	431c      	orrs	r4, r3
    1718:	fa2e f10c 	lsr.w	r1, lr, ip
    171c:	fa20 f30c 	lsr.w	r3, r0, ip
    1720:	40b8      	lsls	r0, r7
    1722:	4301      	orrs	r1, r0
    1724:	ea4f 4914 	mov.w	r9, r4, lsr #16
    1728:	fa0e f507 	lsl.w	r5, lr, r7
    172c:	fbb3 f8f9 	udiv	r8, r3, r9
    1730:	fa1f fe84 	uxth.w	lr, r4
    1734:	fb09 3018 	mls	r0, r9, r8, r3
    1738:	0c0b      	lsrs	r3, r1, #16
    173a:	fb08 fa0e 	mul.w	sl, r8, lr
    173e:	ea43 4300 	orr.w	r3, r3, r0, lsl #16
    1742:	459a      	cmp	sl, r3
    1744:	fa02 f207 	lsl.w	r2, r2, r7
    1748:	d940      	bls.n	17cc <__udivmoddi4+0x298>
    174a:	18e3      	adds	r3, r4, r3
    174c:	f108 30ff 	add.w	r0, r8, #4294967295	; 0xffffffff
    1750:	d204      	bcs.n	175c <__udivmoddi4+0x228>
    1752:	459a      	cmp	sl, r3
    1754:	d902      	bls.n	175c <__udivmoddi4+0x228>
    1756:	f1a8 0002 	sub.w	r0, r8, #2
    175a:	4423      	add	r3, r4
    175c:	eba3 030a 	sub.w	r3, r3, sl
    1760:	b289      	uxth	r1, r1
    1762:	fbb3 f8f9 	udiv	r8, r3, r9
    1766:	fb09 3318 	mls	r3, r9, r8, r3
    176a:	fb08 fe0e 	mul.w	lr, r8, lr
    176e:	ea41 4103 	orr.w	r1, r1, r3, lsl #16
    1772:	458e      	cmp	lr, r1
    1774:	d92c      	bls.n	17d0 <__udivmoddi4+0x29c>
    1776:	1861      	adds	r1, r4, r1
    1778:	f108 33ff 	add.w	r3, r8, #4294967295	; 0xffffffff
    177c:	d204      	bcs.n	1788 <__udivmoddi4+0x254>
    177e:	458e      	cmp	lr, r1
    1780:	d902      	bls.n	1788 <__udivmoddi4+0x254>
    1782:	f1a8 0302 	sub.w	r3, r8, #2
    1786:	4421      	add	r1, r4
    1788:	ea43 4000 	orr.w	r0, r3, r0, lsl #16
    178c:	fba0 9802 	umull	r9, r8, r0, r2
    1790:	eba1 010e 	sub.w	r1, r1, lr
    1794:	4541      	cmp	r1, r8
    1796:	46ce      	mov	lr, r9
    1798:	4643      	mov	r3, r8
    179a:	d302      	bcc.n	17a2 <__udivmoddi4+0x26e>
    179c:	d106      	bne.n	17ac <__udivmoddi4+0x278>
    179e:	454d      	cmp	r5, r9
    17a0:	d204      	bcs.n	17ac <__udivmoddi4+0x278>
    17a2:	ebb9 0e02 	subs.w	lr, r9, r2
    17a6:	eb68 0304 	sbc.w	r3, r8, r4
    17aa:	3801      	subs	r0, #1
    17ac:	2e00      	cmp	r6, #0
    17ae:	d0a6      	beq.n	16fe <__udivmoddi4+0x1ca>
    17b0:	ebb5 020e 	subs.w	r2, r5, lr
    17b4:	eb61 0103 	sbc.w	r1, r1, r3
    17b8:	fa01 fc0c 	lsl.w	ip, r1, ip
    17bc:	fa22 f307 	lsr.w	r3, r2, r7
    17c0:	ea4c 0303 	orr.w	r3, ip, r3
    17c4:	40f9      	lsrs	r1, r7
    17c6:	e9c6 3100 	strd	r3, r1, [r6]
    17ca:	e798      	b.n	16fe <__udivmoddi4+0x1ca>
    17cc:	4640      	mov	r0, r8
    17ce:	e7c5      	b.n	175c <__udivmoddi4+0x228>
    17d0:	4643      	mov	r3, r8
    17d2:	e7d9      	b.n	1788 <__udivmoddi4+0x254>

000017d4 <next_unwind_byte>:
    17d4:	7a02      	ldrb	r2, [r0, #8]
    17d6:	4603      	mov	r3, r0
    17d8:	b97a      	cbnz	r2, 17fa <next_unwind_byte+0x26>
    17da:	7a42      	ldrb	r2, [r0, #9]
    17dc:	b182      	cbz	r2, 1800 <next_unwind_byte+0x2c>
    17de:	3a01      	subs	r2, #1
    17e0:	7242      	strb	r2, [r0, #9]
    17e2:	6842      	ldr	r2, [r0, #4]
    17e4:	1d11      	adds	r1, r2, #4
    17e6:	6812      	ldr	r2, [r2, #0]
    17e8:	6002      	str	r2, [r0, #0]
    17ea:	6041      	str	r1, [r0, #4]
    17ec:	2203      	movs	r2, #3
    17ee:	721a      	strb	r2, [r3, #8]
    17f0:	681a      	ldr	r2, [r3, #0]
    17f2:	0e10      	lsrs	r0, r2, #24
    17f4:	0212      	lsls	r2, r2, #8
    17f6:	601a      	str	r2, [r3, #0]
    17f8:	4770      	bx	lr
    17fa:	3a01      	subs	r2, #1
    17fc:	b2d2      	uxtb	r2, r2
    17fe:	e7f6      	b.n	17ee <next_unwind_byte+0x1a>
    1800:	20b0      	movs	r0, #176	; 0xb0
    1802:	4770      	bx	lr

00001804 <_Unwind_GetGR.constprop.0>:
    1804:	b51f      	push	{r0, r1, r2, r3, r4, lr}
    1806:	ab03      	add	r3, sp, #12
    1808:	9300      	str	r3, [sp, #0]
    180a:	2300      	movs	r3, #0
    180c:	220c      	movs	r2, #12
    180e:	4619      	mov	r1, r3
    1810:	f7ff fad6 	bl	dc0 <_Unwind_VRS_Get>
    1814:	9803      	ldr	r0, [sp, #12]
    1816:	b005      	add	sp, #20
    1818:	f85d fb04 	ldr.w	pc, [sp], #4

0000181c <unwind_UCB_from_context>:
    181c:	e7f2      	b.n	1804 <_Unwind_GetGR.constprop.0>

0000181e <__gnu_unwind_execute>:
    181e:	e92d 43f0 	stmdb	sp!, {r4, r5, r6, r7, r8, r9, lr}
    1822:	4605      	mov	r5, r0
    1824:	b085      	sub	sp, #20
    1826:	460e      	mov	r6, r1
    1828:	f04f 0800 	mov.w	r8, #0
    182c:	4630      	mov	r0, r6
    182e:	f7ff ffd1 	bl	17d4 <next_unwind_byte>
    1832:	28b0      	cmp	r0, #176	; 0xb0
    1834:	4604      	mov	r4, r0
    1836:	d115      	bne.n	1864 <__gnu_unwind_execute+0x46>
    1838:	f1b8 0f00 	cmp.w	r8, #0
    183c:	d10e      	bne.n	185c <__gnu_unwind_execute+0x3e>
    183e:	ac03      	add	r4, sp, #12
    1840:	4643      	mov	r3, r8
    1842:	220e      	movs	r2, #14
    1844:	4641      	mov	r1, r8
    1846:	9400      	str	r4, [sp, #0]
    1848:	4628      	mov	r0, r5
    184a:	f7ff fab9 	bl	dc0 <_Unwind_VRS_Get>
    184e:	9400      	str	r4, [sp, #0]
    1850:	4643      	mov	r3, r8
    1852:	220f      	movs	r2, #15
    1854:	4641      	mov	r1, r8
    1856:	4628      	mov	r0, r5
    1858:	f7ff fad6 	bl	e08 <_Unwind_VRS_Set>
    185c:	2000      	movs	r0, #0
    185e:	b005      	add	sp, #20
    1860:	e8bd 83f0 	ldmia.w	sp!, {r4, r5, r6, r7, r8, r9, pc}
    1864:	0602      	lsls	r2, r0, #24
    1866:	d41d      	bmi.n	18a4 <__gnu_unwind_execute+0x86>
    1868:	2300      	movs	r3, #0
    186a:	af03      	add	r7, sp, #12
    186c:	ea4f 0980 	mov.w	r9, r0, lsl #2
    1870:	4619      	mov	r1, r3
    1872:	9700      	str	r7, [sp, #0]
    1874:	220d      	movs	r2, #13
    1876:	4628      	mov	r0, r5
    1878:	f7ff faa2 	bl	dc0 <_Unwind_VRS_Get>
    187c:	fa5f f989 	uxtb.w	r9, r9
    1880:	9b03      	ldr	r3, [sp, #12]
    1882:	f109 0904 	add.w	r9, r9, #4
    1886:	f014 0f40 	tst.w	r4, #64	; 0x40
    188a:	bf14      	ite	ne
    188c:	eba3 0309 	subne.w	r3, r3, r9
    1890:	444b      	addeq	r3, r9
    1892:	9303      	str	r3, [sp, #12]
    1894:	9700      	str	r7, [sp, #0]
    1896:	2300      	movs	r3, #0
    1898:	220d      	movs	r2, #13
    189a:	4619      	mov	r1, r3
    189c:	4628      	mov	r0, r5
    189e:	f7ff fab3 	bl	e08 <_Unwind_VRS_Set>
    18a2:	e7c3      	b.n	182c <__gnu_unwind_execute+0xe>
    18a4:	f000 03f0 	and.w	r3, r0, #240	; 0xf0
    18a8:	2b80      	cmp	r3, #128	; 0x80
    18aa:	d118      	bne.n	18de <__gnu_unwind_execute+0xc0>
    18ac:	0204      	lsls	r4, r0, #8
    18ae:	4630      	mov	r0, r6
    18b0:	f7ff ff90 	bl	17d4 <next_unwind_byte>
    18b4:	4304      	orrs	r4, r0
    18b6:	f5b4 4f00 	cmp.w	r4, #32768	; 0x8000
    18ba:	d101      	bne.n	18c0 <__gnu_unwind_execute+0xa2>
    18bc:	2009      	movs	r0, #9
    18be:	e7ce      	b.n	185e <__gnu_unwind_execute+0x40>
    18c0:	0124      	lsls	r4, r4, #4
    18c2:	2300      	movs	r3, #0
    18c4:	b2a2      	uxth	r2, r4
    18c6:	4619      	mov	r1, r3
    18c8:	4628      	mov	r0, r5
    18ca:	f7ff fc25 	bl	1118 <_Unwind_VRS_Pop>
    18ce:	2800      	cmp	r0, #0
    18d0:	d1f4      	bne.n	18bc <__gnu_unwind_execute+0x9e>
    18d2:	f414 4f00 	tst.w	r4, #32768	; 0x8000
    18d6:	bf18      	it	ne
    18d8:	f04f 0801 	movne.w	r8, #1
    18dc:	e7a6      	b.n	182c <__gnu_unwind_execute+0xe>
    18de:	2b90      	cmp	r3, #144	; 0x90
    18e0:	d10d      	bne.n	18fe <__gnu_unwind_execute+0xe0>
    18e2:	f000 030d 	and.w	r3, r0, #13
    18e6:	2b0d      	cmp	r3, #13
    18e8:	d0e8      	beq.n	18bc <__gnu_unwind_execute+0x9e>
    18ea:	af03      	add	r7, sp, #12
    18ec:	2300      	movs	r3, #0
    18ee:	f000 020f 	and.w	r2, r0, #15
    18f2:	9700      	str	r7, [sp, #0]
    18f4:	4619      	mov	r1, r3
    18f6:	4628      	mov	r0, r5
    18f8:	f7ff fa62 	bl	dc0 <_Unwind_VRS_Get>
    18fc:	e7ca      	b.n	1894 <__gnu_unwind_execute+0x76>
    18fe:	2ba0      	cmp	r3, #160	; 0xa0
    1900:	d113      	bne.n	192a <__gnu_unwind_execute+0x10c>
    1902:	43c3      	mvns	r3, r0
    1904:	f003 0307 	and.w	r3, r3, #7
    1908:	f44f 627f 	mov.w	r2, #4080	; 0xff0
    190c:	411a      	asrs	r2, r3
    190e:	0703      	lsls	r3, r0, #28
    1910:	f402 627f 	and.w	r2, r2, #4080	; 0xff0
    1914:	d501      	bpl.n	191a <__gnu_unwind_execute+0xfc>
    1916:	f442 4280 	orr.w	r2, r2, #16384	; 0x4000
    191a:	2300      	movs	r3, #0
    191c:	4619      	mov	r1, r3
    191e:	4628      	mov	r0, r5
    1920:	f7ff fbfa 	bl	1118 <_Unwind_VRS_Pop>
    1924:	2800      	cmp	r0, #0
    1926:	d081      	beq.n	182c <__gnu_unwind_execute+0xe>
    1928:	e7c8      	b.n	18bc <__gnu_unwind_execute+0x9e>
    192a:	2bb0      	cmp	r3, #176	; 0xb0
    192c:	d146      	bne.n	19bc <__gnu_unwind_execute+0x19e>
    192e:	28b1      	cmp	r0, #177	; 0xb1
    1930:	d108      	bne.n	1944 <__gnu_unwind_execute+0x126>
    1932:	4630      	mov	r0, r6
    1934:	f7ff ff4e 	bl	17d4 <next_unwind_byte>
    1938:	1e43      	subs	r3, r0, #1
    193a:	b2db      	uxtb	r3, r3
    193c:	2b0e      	cmp	r3, #14
    193e:	4602      	mov	r2, r0
    1940:	d9eb      	bls.n	191a <__gnu_unwind_execute+0xfc>
    1942:	e7bb      	b.n	18bc <__gnu_unwind_execute+0x9e>
    1944:	28b2      	cmp	r0, #178	; 0xb2
    1946:	d120      	bne.n	198a <__gnu_unwind_execute+0x16c>
    1948:	2300      	movs	r3, #0
    194a:	ac03      	add	r4, sp, #12
    194c:	220d      	movs	r2, #13
    194e:	4619      	mov	r1, r3
    1950:	9400      	str	r4, [sp, #0]
    1952:	4628      	mov	r0, r5
    1954:	f7ff fa34 	bl	dc0 <_Unwind_VRS_Get>
    1958:	4630      	mov	r0, r6
    195a:	f7ff ff3b 	bl	17d4 <next_unwind_byte>
    195e:	2702      	movs	r7, #2
    1960:	f000 017f 	and.w	r1, r0, #127	; 0x7f
    1964:	f010 0380 	ands.w	r3, r0, #128	; 0x80
    1968:	9a03      	ldr	r2, [sp, #12]
    196a:	fa01 f107 	lsl.w	r1, r1, r7
    196e:	d105      	bne.n	197c <__gnu_unwind_execute+0x15e>
    1970:	f502 7201 	add.w	r2, r2, #516	; 0x204
    1974:	440a      	add	r2, r1
    1976:	9203      	str	r2, [sp, #12]
    1978:	9400      	str	r4, [sp, #0]
    197a:	e78d      	b.n	1898 <__gnu_unwind_execute+0x7a>
    197c:	440a      	add	r2, r1
    197e:	4630      	mov	r0, r6
    1980:	9203      	str	r2, [sp, #12]
    1982:	3707      	adds	r7, #7
    1984:	f7ff ff26 	bl	17d4 <next_unwind_byte>
    1988:	e7ea      	b.n	1960 <__gnu_unwind_execute+0x142>
    198a:	28b3      	cmp	r0, #179	; 0xb3
    198c:	d10b      	bne.n	19a6 <__gnu_unwind_execute+0x188>
    198e:	4630      	mov	r0, r6
    1990:	f7ff ff20 	bl	17d4 <next_unwind_byte>
    1994:	0302      	lsls	r2, r0, #12
    1996:	f000 000f 	and.w	r0, r0, #15
    199a:	f402 2270 	and.w	r2, r2, #983040	; 0xf0000
    199e:	3001      	adds	r0, #1
    19a0:	2301      	movs	r3, #1
    19a2:	4302      	orrs	r2, r0
    19a4:	e7ba      	b.n	191c <__gnu_unwind_execute+0xfe>
    19a6:	f000 03fc 	and.w	r3, r0, #252	; 0xfc
    19aa:	2bb4      	cmp	r3, #180	; 0xb4
    19ac:	d086      	beq.n	18bc <__gnu_unwind_execute+0x9e>
    19ae:	f000 0207 	and.w	r2, r0, #7
    19b2:	3201      	adds	r2, #1
    19b4:	2301      	movs	r3, #1
    19b6:	f442 2200 	orr.w	r2, r2, #524288	; 0x80000
    19ba:	e7af      	b.n	191c <__gnu_unwind_execute+0xfe>
    19bc:	2bc0      	cmp	r3, #192	; 0xc0
    19be:	d144      	bne.n	1a4a <__gnu_unwind_execute+0x22c>
    19c0:	28c6      	cmp	r0, #198	; 0xc6
    19c2:	d10a      	bne.n	19da <__gnu_unwind_execute+0x1bc>
    19c4:	4630      	mov	r0, r6
    19c6:	f7ff ff05 	bl	17d4 <next_unwind_byte>
    19ca:	0302      	lsls	r2, r0, #12
    19cc:	f000 000f 	and.w	r0, r0, #15
    19d0:	f402 2270 	and.w	r2, r2, #983040	; 0xf0000
    19d4:	3001      	adds	r0, #1
    19d6:	2303      	movs	r3, #3
    19d8:	e7e3      	b.n	19a2 <__gnu_unwind_execute+0x184>
    19da:	28c7      	cmp	r0, #199	; 0xc7
    19dc:	d10b      	bne.n	19f6 <__gnu_unwind_execute+0x1d8>
    19de:	4630      	mov	r0, r6
    19e0:	f7ff fef8 	bl	17d4 <next_unwind_byte>
    19e4:	1e43      	subs	r3, r0, #1
    19e6:	b2db      	uxtb	r3, r3
    19e8:	2b0e      	cmp	r3, #14
    19ea:	4602      	mov	r2, r0
    19ec:	f63f af66 	bhi.w	18bc <__gnu_unwind_execute+0x9e>
    19f0:	2300      	movs	r3, #0
    19f2:	2104      	movs	r1, #4
    19f4:	e793      	b.n	191e <__gnu_unwind_execute+0x100>
    19f6:	f000 03f8 	and.w	r3, r0, #248	; 0xf8
    19fa:	2bc0      	cmp	r3, #192	; 0xc0
    19fc:	d106      	bne.n	1a0c <__gnu_unwind_execute+0x1ee>
    19fe:	f000 020f 	and.w	r2, r0, #15
    1a02:	3201      	adds	r2, #1
    1a04:	2303      	movs	r3, #3
    1a06:	f442 2220 	orr.w	r2, r2, #655360	; 0xa0000
    1a0a:	e787      	b.n	191c <__gnu_unwind_execute+0xfe>
    1a0c:	28c8      	cmp	r0, #200	; 0xc8
    1a0e:	d10d      	bne.n	1a2c <__gnu_unwind_execute+0x20e>
    1a10:	4630      	mov	r0, r6
    1a12:	f7ff fedf 	bl	17d4 <next_unwind_byte>
    1a16:	f000 02f0 	and.w	r2, r0, #240	; 0xf0
    1a1a:	f000 000f 	and.w	r0, r0, #15
    1a1e:	3210      	adds	r2, #16
    1a20:	3001      	adds	r0, #1
    1a22:	2305      	movs	r3, #5
    1a24:	ea40 3202 	orr.w	r2, r0, r2, lsl #12
    1a28:	2101      	movs	r1, #1
    1a2a:	e778      	b.n	191e <__gnu_unwind_execute+0x100>
    1a2c:	28c9      	cmp	r0, #201	; 0xc9
    1a2e:	f47f af45 	bne.w	18bc <__gnu_unwind_execute+0x9e>
    1a32:	4630      	mov	r0, r6
    1a34:	f7ff fece 	bl	17d4 <next_unwind_byte>
    1a38:	0302      	lsls	r2, r0, #12
    1a3a:	f000 000f 	and.w	r0, r0, #15
    1a3e:	f402 2270 	and.w	r2, r2, #983040	; 0xf0000
    1a42:	3001      	adds	r0, #1
    1a44:	2305      	movs	r3, #5
    1a46:	4302      	orrs	r2, r0
    1a48:	e7ee      	b.n	1a28 <__gnu_unwind_execute+0x20a>
    1a4a:	f000 03f8 	and.w	r3, r0, #248	; 0xf8
    1a4e:	2bd0      	cmp	r3, #208	; 0xd0
    1a50:	f47f af34 	bne.w	18bc <__gnu_unwind_execute+0x9e>
    1a54:	f000 0207 	and.w	r2, r0, #7
    1a58:	3201      	adds	r2, #1
    1a5a:	2305      	movs	r3, #5
    1a5c:	f442 2200 	orr.w	r2, r2, #524288	; 0x80000
    1a60:	e7e2      	b.n	1a28 <__gnu_unwind_execute+0x20a>

00001a62 <__gnu_unwind_frame>:
    1a62:	b51f      	push	{r0, r1, r2, r3, r4, lr}
    1a64:	4603      	mov	r3, r0
    1a66:	4608      	mov	r0, r1
    1a68:	6cda      	ldr	r2, [r3, #76]	; 0x4c
    1a6a:	6853      	ldr	r3, [r2, #4]
    1a6c:	3208      	adds	r2, #8
    1a6e:	0219      	lsls	r1, r3, #8
    1a70:	9101      	str	r1, [sp, #4]
    1a72:	9202      	str	r2, [sp, #8]
    1a74:	0e1b      	lsrs	r3, r3, #24
    1a76:	2203      	movs	r2, #3
    1a78:	a901      	add	r1, sp, #4
    1a7a:	f88d 200c 	strb.w	r2, [sp, #12]
    1a7e:	f88d 300d 	strb.w	r3, [sp, #13]
    1a82:	f7ff fecc 	bl	181e <__gnu_unwind_execute>
    1a86:	b005      	add	sp, #20
    1a88:	f85d fb04 	ldr.w	pc, [sp], #4

00001a8c <_Unwind_GetRegionStart>:
    1a8c:	b508      	push	{r3, lr}
    1a8e:	f7ff fec5 	bl	181c <unwind_UCB_from_context>
    1a92:	6c80      	ldr	r0, [r0, #72]	; 0x48
    1a94:	bd08      	pop	{r3, pc}

00001a96 <_Unwind_GetLanguageSpecificData>:
    1a96:	b508      	push	{r3, lr}
    1a98:	f7ff fec0 	bl	181c <unwind_UCB_from_context>
    1a9c:	6cc0      	ldr	r0, [r0, #76]	; 0x4c
    1a9e:	79c3      	ldrb	r3, [r0, #7]
    1aa0:	3302      	adds	r3, #2
    1aa2:	eb00 0083 	add.w	r0, r0, r3, lsl #2
    1aa6:	bd08      	pop	{r3, pc}

00001aa8 <strcmp>:
    1aa8:	f810 2b01 	ldrb.w	r2, [r0], #1
    1aac:	f811 3b01 	ldrb.w	r3, [r1], #1
    1ab0:	2a01      	cmp	r2, #1
    1ab2:	bf28      	it	cs
    1ab4:	429a      	cmpcs	r2, r3
    1ab6:	d0f7      	beq.n	1aa8 <strcmp>
    1ab8:	1ad0      	subs	r0, r2, r3
    1aba:	4770      	bx	lr

00001abc <strlen>:
    1abc:	4603      	mov	r3, r0
    1abe:	f813 2b01 	ldrb.w	r2, [r3], #1
    1ac2:	2a00      	cmp	r2, #0
    1ac4:	d1fb      	bne.n	1abe <strlen+0x2>
    1ac6:	1a18      	subs	r0, r3, r0
    1ac8:	3801      	subs	r0, #1
    1aca:	4770      	bx	lr

00001acc <cycles_to_us>:
    1acc:	b590      	push	{r4, r7, lr}
    1ace:	b083      	sub	sp, #12
    1ad0:	af00      	add	r7, sp, #0
    1ad2:	6078      	str	r0, [r7, #4]
    1ad4:	6878      	ldr	r0, [r7, #4]
    1ad6:	f7fe fe13 	bl	700 <__aeabi_ui2f>
    1ada:	4604      	mov	r4, r0
    1adc:	4b07      	ldr	r3, [pc, #28]	; (1afc <cycles_to_us+0x30>)
    1ade:	681b      	ldr	r3, [r3, #0]
    1ae0:	4618      	mov	r0, r3
    1ae2:	f7fe fe0d 	bl	700 <__aeabi_ui2f>
    1ae6:	4603      	mov	r3, r0
    1ae8:	4619      	mov	r1, r3
    1aea:	4620      	mov	r0, r4
    1aec:	f7fe ff14 	bl	918 <__aeabi_fdiv>
    1af0:	4603      	mov	r3, r0
    1af2:	4618      	mov	r0, r3
    1af4:	370c      	adds	r7, #12
    1af6:	46bd      	mov	sp, r7
    1af8:	bd90      	pop	{r4, r7, pc}
    1afa:	bf00      	nop
    1afc:	20000000 	.word	0x20000000

00001b00 <dwt_init>:
    1b00:	b480      	push	{r7}
    1b02:	af00      	add	r7, sp, #0
    1b04:	4b0a      	ldr	r3, [pc, #40]	; (1b30 <dwt_init+0x30>)
    1b06:	2240      	movs	r2, #64	; 0x40
    1b08:	601a      	str	r2, [r3, #0]
    1b0a:	4b0a      	ldr	r3, [pc, #40]	; (1b34 <dwt_init+0x34>)
    1b0c:	681b      	ldr	r3, [r3, #0]
    1b0e:	4a09      	ldr	r2, [pc, #36]	; (1b34 <dwt_init+0x34>)
    1b10:	f043 7380 	orr.w	r3, r3, #16777216	; 0x1000000
    1b14:	6013      	str	r3, [r2, #0]
    1b16:	4b08      	ldr	r3, [pc, #32]	; (1b38 <dwt_init+0x38>)
    1b18:	2200      	movs	r2, #0
    1b1a:	601a      	str	r2, [r3, #0]
    1b1c:	4b07      	ldr	r3, [pc, #28]	; (1b3c <dwt_init+0x3c>)
    1b1e:	681b      	ldr	r3, [r3, #0]
    1b20:	4a06      	ldr	r2, [pc, #24]	; (1b3c <dwt_init+0x3c>)
    1b22:	f043 0301 	orr.w	r3, r3, #1
    1b26:	6013      	str	r3, [r2, #0]
    1b28:	bf00      	nop
    1b2a:	46bd      	mov	sp, r7
    1b2c:	bc80      	pop	{r7}
    1b2e:	4770      	bx	lr
    1b30:	20000000 	.word	0x20000000
    1b34:	e000edfc 	.word	0xe000edfc
    1b38:	e0001004 	.word	0xe0001004
    1b3c:	e0001000 	.word	0xe0001000

00001b40 <dwt_get_counter>:
    1b40:	b480      	push	{r7}
    1b42:	af00      	add	r7, sp, #0
    1b44:	4b02      	ldr	r3, [pc, #8]	; (1b50 <dwt_get_counter+0x10>)
    1b46:	681b      	ldr	r3, [r3, #0]
    1b48:	4618      	mov	r0, r3
    1b4a:	46bd      	mov	sp, r7
    1b4c:	bc80      	pop	{r7}
    1b4e:	4770      	bx	lr
    1b50:	e0001004 	.word	0xe0001004

00001b54 <setup_profiler>:
    1b54:	b580      	push	{r7, lr}
    1b56:	af00      	add	r7, sp, #0
    1b58:	4b07      	ldr	r3, [pc, #28]	; (1b78 <setup_profiler+0x24>)
    1b5a:	2200      	movs	r2, #0
    1b5c:	f8c3 2090 	str.w	r2, [r3, #144]	; 0x90
    1b60:	f7ff ffce 	bl	1b00 <dwt_init>
    1b64:	4b05      	ldr	r3, [pc, #20]	; (1b7c <setup_profiler+0x28>)
    1b66:	681b      	ldr	r3, [r3, #0]
    1b68:	4a03      	ldr	r2, [pc, #12]	; (1b78 <setup_profiler+0x24>)
    1b6a:	6613      	str	r3, [r2, #96]	; 0x60
    1b6c:	4b04      	ldr	r3, [pc, #16]	; (1b80 <setup_profiler+0x2c>)
    1b6e:	681b      	ldr	r3, [r3, #0]
    1b70:	4a01      	ldr	r2, [pc, #4]	; (1b78 <setup_profiler+0x24>)
    1b72:	6653      	str	r3, [r2, #100]	; 0x64
    1b74:	bf00      	nop
    1b76:	bd80      	pop	{r7, pc}
    1b78:	2000079c 	.word	0x2000079c
    1b7c:	0000ce4c 	.word	0x0000ce4c
    1b80:	0000ce48 	.word	0x0000ce48

00001b84 <profile_add_event>:
    1b84:	b580      	push	{r7, lr}
    1b86:	b084      	sub	sp, #16
    1b88:	af00      	add	r7, sp, #0
    1b8a:	6078      	str	r0, [r7, #4]
    1b8c:	4b1b      	ldr	r3, [pc, #108]	; (1bfc <profile_add_event+0x78>)
    1b8e:	781b      	ldrb	r3, [r3, #0]
    1b90:	f083 0301 	eor.w	r3, r3, #1
    1b94:	b2db      	uxtb	r3, r3
    1b96:	2b00      	cmp	r3, #0
    1b98:	d001      	beq.n	1b9e <profile_add_event+0x1a>
    1b9a:	f7ff ffdb 	bl	1b54 <setup_profiler>
    1b9e:	4b18      	ldr	r3, [pc, #96]	; (1c00 <profile_add_event+0x7c>)
    1ba0:	f8d3 3090 	ldr.w	r3, [r3, #144]	; 0x90
    1ba4:	2b0b      	cmp	r3, #11
    1ba6:	dd03      	ble.n	1bb0 <profile_add_event+0x2c>
    1ba8:	4b15      	ldr	r3, [pc, #84]	; (1c00 <profile_add_event+0x7c>)
    1baa:	2200      	movs	r2, #0
    1bac:	f8c3 2090 	str.w	r2, [r3, #144]	; 0x90
    1bb0:	4b13      	ldr	r3, [pc, #76]	; (1c00 <profile_add_event+0x7c>)
    1bb2:	f8d3 3090 	ldr.w	r3, [r3, #144]	; 0x90
    1bb6:	60fb      	str	r3, [r7, #12]
    1bb8:	4911      	ldr	r1, [pc, #68]	; (1c00 <profile_add_event+0x7c>)
    1bba:	68fb      	ldr	r3, [r7, #12]
    1bbc:	3318      	adds	r3, #24
    1bbe:	687a      	ldr	r2, [r7, #4]
    1bc0:	f841 2023 	str.w	r2, [r1, r3, lsl #2]
    1bc4:	4a0e      	ldr	r2, [pc, #56]	; (1c00 <profile_add_event+0x7c>)
    1bc6:	68fb      	ldr	r3, [r7, #12]
    1bc8:	330c      	adds	r3, #12
    1bca:	2100      	movs	r1, #0
    1bcc:	f842 1023 	str.w	r1, [r2, r3, lsl #2]
    1bd0:	4a0b      	ldr	r2, [pc, #44]	; (1c00 <profile_add_event+0x7c>)
    1bd2:	68fb      	ldr	r3, [r7, #12]
    1bd4:	330c      	adds	r3, #12
    1bd6:	f852 2023 	ldr.w	r2, [r2, r3, lsl #2]
    1bda:	4909      	ldr	r1, [pc, #36]	; (1c00 <profile_add_event+0x7c>)
    1bdc:	68fb      	ldr	r3, [r7, #12]
    1bde:	f841 2023 	str.w	r2, [r1, r3, lsl #2]
    1be2:	4b07      	ldr	r3, [pc, #28]	; (1c00 <profile_add_event+0x7c>)
    1be4:	f8d3 3090 	ldr.w	r3, [r3, #144]	; 0x90
    1be8:	3301      	adds	r3, #1
    1bea:	4a05      	ldr	r2, [pc, #20]	; (1c00 <profile_add_event+0x7c>)
    1bec:	f8c2 3090 	str.w	r3, [r2, #144]	; 0x90
    1bf0:	68fb      	ldr	r3, [r7, #12]
    1bf2:	4618      	mov	r0, r3
    1bf4:	3710      	adds	r7, #16
    1bf6:	46bd      	mov	sp, r7
    1bf8:	bd80      	pop	{r7, pc}
    1bfa:	bf00      	nop
    1bfc:	20001870 	.word	0x20001870
    1c00:	2000079c 	.word	0x2000079c

00001c04 <profile_start>:
    1c04:	b580      	push	{r7, lr}
    1c06:	b082      	sub	sp, #8
    1c08:	af00      	add	r7, sp, #0
    1c0a:	6078      	str	r0, [r7, #4]
    1c0c:	4b0b      	ldr	r3, [pc, #44]	; (1c3c <profile_start+0x38>)
    1c0e:	781b      	ldrb	r3, [r3, #0]
    1c10:	f083 0301 	eor.w	r3, r3, #1
    1c14:	b2db      	uxtb	r3, r3
    1c16:	2b00      	cmp	r3, #0
    1c18:	d004      	beq.n	1c24 <profile_start+0x20>
    1c1a:	f7ff ff9b 	bl	1b54 <setup_profiler>
    1c1e:	4b07      	ldr	r3, [pc, #28]	; (1c3c <profile_start+0x38>)
    1c20:	2201      	movs	r2, #1
    1c22:	701a      	strb	r2, [r3, #0]
    1c24:	f7ff ff8c 	bl	1b40 <dwt_get_counter>
    1c28:	4602      	mov	r2, r0
    1c2a:	4905      	ldr	r1, [pc, #20]	; (1c40 <profile_start+0x3c>)
    1c2c:	687b      	ldr	r3, [r7, #4]
    1c2e:	f841 2023 	str.w	r2, [r1, r3, lsl #2]
    1c32:	bf00      	nop
    1c34:	3708      	adds	r7, #8
    1c36:	46bd      	mov	sp, r7
    1c38:	bd80      	pop	{r7, pc}
    1c3a:	bf00      	nop
    1c3c:	20001870 	.word	0x20001870
    1c40:	2000079c 	.word	0x2000079c

00001c44 <profile_end>:
    1c44:	b580      	push	{r7, lr}
    1c46:	b082      	sub	sp, #8
    1c48:	af00      	add	r7, sp, #0
    1c4a:	6078      	str	r0, [r7, #4]
    1c4c:	f7ff ff78 	bl	1b40 <dwt_get_counter>
    1c50:	4602      	mov	r2, r0
    1c52:	4909      	ldr	r1, [pc, #36]	; (1c78 <profile_end+0x34>)
    1c54:	687b      	ldr	r3, [r7, #4]
    1c56:	330c      	adds	r3, #12
    1c58:	f841 2023 	str.w	r2, [r1, r3, lsl #2]
    1c5c:	4a06      	ldr	r2, [pc, #24]	; (1c78 <profile_end+0x34>)
    1c5e:	687b      	ldr	r3, [r7, #4]
    1c60:	330c      	adds	r3, #12
    1c62:	f852 2023 	ldr.w	r2, [r2, r3, lsl #2]
    1c66:	4904      	ldr	r1, [pc, #16]	; (1c78 <profile_end+0x34>)
    1c68:	687b      	ldr	r3, [r7, #4]
    1c6a:	f851 3023 	ldr.w	r3, [r1, r3, lsl #2]
    1c6e:	1ad3      	subs	r3, r2, r3
    1c70:	4618      	mov	r0, r3
    1c72:	3708      	adds	r7, #8
    1c74:	46bd      	mov	sp, r7
    1c76:	bd80      	pop	{r7, pc}
    1c78:	2000079c 	.word	0x2000079c

00001c7c <profile_dump>:
    1c7c:	b580      	push	{r7, lr}
    1c7e:	b086      	sub	sp, #24
    1c80:	af02      	add	r7, sp, #8
    1c82:	6078      	str	r0, [r7, #4]
    1c84:	4a0f      	ldr	r2, [pc, #60]	; (1cc4 <profile_dump+0x48>)
    1c86:	687b      	ldr	r3, [r7, #4]
    1c88:	330c      	adds	r3, #12
    1c8a:	f852 2023 	ldr.w	r2, [r2, r3, lsl #2]
    1c8e:	490d      	ldr	r1, [pc, #52]	; (1cc4 <profile_dump+0x48>)
    1c90:	687b      	ldr	r3, [r7, #4]
    1c92:	f851 3023 	ldr.w	r3, [r1, r3, lsl #2]
    1c96:	1ad3      	subs	r3, r2, r3
    1c98:	60fb      	str	r3, [r7, #12]
    1c9a:	68f8      	ldr	r0, [r7, #12]
    1c9c:	f7ff ff16 	bl	1acc <cycles_to_us>
    1ca0:	60b8      	str	r0, [r7, #8]
    1ca2:	68b8      	ldr	r0, [r7, #8]
    1ca4:	f7fe fc1e 	bl	4e4 <__aeabi_f2d>
    1ca8:	4602      	mov	r2, r0
    1caa:	460b      	mov	r3, r1
    1cac:	e9cd 2300 	strd	r2, r3, [sp]
    1cb0:	68fa      	ldr	r2, [r7, #12]
    1cb2:	6879      	ldr	r1, [r7, #4]
    1cb4:	4804      	ldr	r0, [pc, #16]	; (1cc8 <profile_dump+0x4c>)
    1cb6:	f007 f82f 	bl	8d18 <iprintf>
    1cba:	bf00      	nop
    1cbc:	3710      	adds	r7, #16
    1cbe:	46bd      	mov	sp, r7
    1cc0:	bd80      	pop	{r7, pc}
    1cc2:	bf00      	nop
    1cc4:	2000079c 	.word	0x2000079c
    1cc8:	0000cb70 	.word	0x0000cb70

00001ccc <dummy_buggy_MQTT_packet_length_decode>:
    1ccc:	b580      	push	{r7, lr}
    1cce:	b084      	sub	sp, #16
    1cd0:	af00      	add	r7, sp, #0
    1cd2:	6078      	str	r0, [r7, #4]
    1cd4:	6039      	str	r1, [r7, #0]
    1cd6:	2300      	movs	r3, #0
    1cd8:	73fb      	strb	r3, [r7, #15]
    1cda:	2300      	movs	r3, #0
    1cdc:	73bb      	strb	r3, [r7, #14]
    1cde:	f04f 33ff 	mov.w	r3, #4294967295	; 0xffffffff
    1ce2:	60bb      	str	r3, [r7, #8]
    1ce4:	683b      	ldr	r3, [r7, #0]
    1ce6:	2200      	movs	r2, #0
    1ce8:	601a      	str	r2, [r3, #0]
    1cea:	7bbb      	ldrb	r3, [r7, #14]
    1cec:	2b04      	cmp	r3, #4
    1cee:	d901      	bls.n	1cf4 <dummy_buggy_MQTT_packet_length_decode+0x28>
    1cf0:	68bb      	ldr	r3, [r7, #8]
    1cf2:	e031      	b.n	1d58 <dummy_buggy_MQTT_packet_length_decode+0x8c>
    1cf4:	687b      	ldr	r3, [r7, #4]
    1cf6:	681a      	ldr	r2, [r3, #0]
    1cf8:	687b      	ldr	r3, [r7, #4]
    1cfa:	685b      	ldr	r3, [r3, #4]
    1cfc:	429a      	cmp	r2, r3
    1cfe:	d301      	bcc.n	1d04 <dummy_buggy_MQTT_packet_length_decode+0x38>
    1d00:	68bb      	ldr	r3, [r7, #8]
    1d02:	e029      	b.n	1d58 <dummy_buggy_MQTT_packet_length_decode+0x8c>
    1d04:	683b      	ldr	r3, [r7, #0]
    1d06:	681b      	ldr	r3, [r3, #0]
    1d08:	687a      	ldr	r2, [r7, #4]
    1d0a:	6812      	ldr	r2, [r2, #0]
    1d0c:	7812      	ldrb	r2, [r2, #0]
    1d0e:	f002 017f 	and.w	r1, r2, #127	; 0x7f
    1d12:	7bfa      	ldrb	r2, [r7, #15]
    1d14:	fa01 f202 	lsl.w	r2, r1, r2
    1d18:	441a      	add	r2, r3
    1d1a:	683b      	ldr	r3, [r7, #0]
    1d1c:	601a      	str	r2, [r3, #0]
    1d1e:	7bfb      	ldrb	r3, [r7, #15]
    1d20:	3307      	adds	r3, #7
    1d22:	73fb      	strb	r3, [r7, #15]
    1d24:	7bbb      	ldrb	r3, [r7, #14]
    1d26:	3301      	adds	r3, #1
    1d28:	73bb      	strb	r3, [r7, #14]
    1d2a:	687b      	ldr	r3, [r7, #4]
    1d2c:	681b      	ldr	r3, [r3, #0]
    1d2e:	1c59      	adds	r1, r3, #1
    1d30:	687a      	ldr	r2, [r7, #4]
    1d32:	6011      	str	r1, [r2, #0]
    1d34:	781b      	ldrb	r3, [r3, #0]
    1d36:	b25b      	sxtb	r3, r3
    1d38:	2b00      	cmp	r3, #0
    1d3a:	dbd6      	blt.n	1cea <dummy_buggy_MQTT_packet_length_decode+0x1e>
    1d3c:	f008 f916 	bl	9f6c <fixed_patch_point_hanlder>
    1d40:	4603      	mov	r3, r0
    1d42:	4a07      	ldr	r2, [pc, #28]	; (1d60 <dummy_buggy_MQTT_packet_length_decode+0x94>)
    1d44:	6013      	str	r3, [r2, #0]
    1d46:	4b06      	ldr	r3, [pc, #24]	; (1d60 <dummy_buggy_MQTT_packet_length_decode+0x94>)
    1d48:	681b      	ldr	r3, [r3, #0]
    1d4a:	f5b3 3f80 	cmp.w	r3, #65536	; 0x10000
    1d4e:	d002      	beq.n	1d56 <dummy_buggy_MQTT_packet_length_decode+0x8a>
    1d50:	4b03      	ldr	r3, [pc, #12]	; (1d60 <dummy_buggy_MQTT_packet_length_decode+0x94>)
    1d52:	681b      	ldr	r3, [r3, #0]
    1d54:	e000      	b.n	1d58 <dummy_buggy_MQTT_packet_length_decode+0x8c>
    1d56:	2300      	movs	r3, #0
    1d58:	4618      	mov	r0, r3
    1d5a:	3710      	adds	r7, #16
    1d5c:	46bd      	mov	sp, r7
    1d5e:	bd80      	pop	{r7, pc}
    1d60:	20000798 	.word	0x20000798

00001d64 <call_dummy_buggy_MQTT_function>:
    1d64:	b580      	push	{r7, lr}
    1d66:	b08a      	sub	sp, #40	; 0x28
    1d68:	af00      	add	r7, sp, #0
    1d6a:	2300      	movs	r3, #0
    1d6c:	627b      	str	r3, [r7, #36]	; 0x24
    1d6e:	e008      	b.n	1d82 <call_dummy_buggy_MQTT_function+0x1e>
    1d70:	f107 0210 	add.w	r2, r7, #16
    1d74:	6a7b      	ldr	r3, [r7, #36]	; 0x24
    1d76:	4413      	add	r3, r2
    1d78:	22ff      	movs	r2, #255	; 0xff
    1d7a:	701a      	strb	r2, [r3, #0]
    1d7c:	6a7b      	ldr	r3, [r7, #36]	; 0x24
    1d7e:	3301      	adds	r3, #1
    1d80:	627b      	str	r3, [r7, #36]	; 0x24
    1d82:	6a7b      	ldr	r3, [r7, #36]	; 0x24
    1d84:	2b03      	cmp	r3, #3
    1d86:	ddf3      	ble.n	1d70 <call_dummy_buggy_MQTT_function+0xc>
    1d88:	237f      	movs	r3, #127	; 0x7f
    1d8a:	753b      	strb	r3, [r7, #20]
    1d8c:	2305      	movs	r3, #5
    1d8e:	623b      	str	r3, [r7, #32]
    1d90:	e008      	b.n	1da4 <call_dummy_buggy_MQTT_function+0x40>
    1d92:	f107 0210 	add.w	r2, r7, #16
    1d96:	6a3b      	ldr	r3, [r7, #32]
    1d98:	4413      	add	r3, r2
    1d9a:	2200      	movs	r2, #0
    1d9c:	701a      	strb	r2, [r3, #0]
    1d9e:	6a3b      	ldr	r3, [r7, #32]
    1da0:	3301      	adds	r3, #1
    1da2:	623b      	str	r3, [r7, #32]
    1da4:	6a3b      	ldr	r3, [r7, #32]
    1da6:	2b09      	cmp	r3, #9
    1da8:	ddf3      	ble.n	1d92 <call_dummy_buggy_MQTT_function+0x2e>
    1daa:	f107 0310 	add.w	r3, r7, #16
    1dae:	60bb      	str	r3, [r7, #8]
    1db0:	f107 0310 	add.w	r3, r7, #16
    1db4:	3309      	adds	r3, #9
    1db6:	60fb      	str	r3, [r7, #12]
    1db8:	2300      	movs	r3, #0
    1dba:	607b      	str	r3, [r7, #4]
    1dbc:	4813      	ldr	r0, [pc, #76]	; (1e0c <call_dummy_buggy_MQTT_function+0xa8>)
    1dbe:	f7ff fee1 	bl	1b84 <profile_add_event>
    1dc2:	2000      	movs	r0, #0
    1dc4:	f7ff ff1e 	bl	1c04 <profile_start>
    1dc8:	1d3a      	adds	r2, r7, #4
    1dca:	f107 0308 	add.w	r3, r7, #8
    1dce:	4611      	mov	r1, r2
    1dd0:	4618      	mov	r0, r3
    1dd2:	f7ff ff7b 	bl	1ccc <dummy_buggy_MQTT_packet_length_decode>
    1dd6:	61f8      	str	r0, [r7, #28]
    1dd8:	2000      	movs	r0, #0
    1dda:	f7ff ff33 	bl	1c44 <profile_end>
    1dde:	2000      	movs	r0, #0
    1de0:	f7ff ff4c 	bl	1c7c <profile_dump>
    1de4:	687b      	ldr	r3, [r7, #4]
    1de6:	4619      	mov	r1, r3
    1de8:	4809      	ldr	r0, [pc, #36]	; (1e10 <call_dummy_buggy_MQTT_function+0xac>)
    1dea:	f006 ff95 	bl	8d18 <iprintf>
    1dee:	687b      	ldr	r3, [r7, #4]
    1df0:	f1b3 3fff 	cmp.w	r3, #4294967295	; 0xffffffff
    1df4:	d103      	bne.n	1dfe <call_dummy_buggy_MQTT_function+0x9a>
    1df6:	4807      	ldr	r0, [pc, #28]	; (1e14 <call_dummy_buggy_MQTT_function+0xb0>)
    1df8:	f006 ff8e 	bl	8d18 <iprintf>
    1dfc:	e002      	b.n	1e04 <call_dummy_buggy_MQTT_function+0xa0>
    1dfe:	4806      	ldr	r0, [pc, #24]	; (1e18 <call_dummy_buggy_MQTT_function+0xb4>)
    1e00:	f006 ff8a 	bl	8d18 <iprintf>
    1e04:	bf00      	nop
    1e06:	3728      	adds	r7, #40	; 0x28
    1e08:	46bd      	mov	sp, r7
    1e0a:	bd80      	pop	{r7, pc}
    1e0c:	0000cc60 	.word	0x0000cc60
    1e10:	0000cc64 	.word	0x0000cc64
    1e14:	0000cc88 	.word	0x0000cc88
    1e18:	0000cca0 	.word	0x0000cca0

00001e1c <main>:
    1e1c:	b580      	push	{r7, lr}
    1e1e:	b08a      	sub	sp, #40	; 0x28
    1e20:	af00      	add	r7, sp, #0
    1e22:	f7ff ff9f 	bl	1d64 <call_dummy_buggy_MQTT_function>
    1e26:	480d      	ldr	r0, [pc, #52]	; (1e5c <main+0x40>)
    1e28:	f006 ff76 	bl	8d18 <iprintf>
    1e2c:	480c      	ldr	r0, [pc, #48]	; (1e60 <main+0x44>)
    1e2e:	f7ff fea9 	bl	1b84 <profile_add_event>
    1e32:	2001      	movs	r0, #1
    1e34:	f7ff fee6 	bl	1c04 <profile_start>
    1e38:	2300      	movs	r3, #0
    1e3a:	603b      	str	r3, [r7, #0]
    1e3c:	463b      	mov	r3, r7
    1e3e:	4618      	mov	r0, r3
    1e40:	f7fe f9ae 	bl	1a0 <filter>
    1e44:	e9c7 0108 	strd	r0, r1, [r7, #32]
    1e48:	2001      	movs	r0, #1
    1e4a:	f7ff fefb 	bl	1c44 <profile_end>
    1e4e:	2001      	movs	r0, #1
    1e50:	f7ff ff14 	bl	1c7c <profile_dump>
    1e54:	bf00      	nop
    1e56:	3728      	adds	r7, #40	; 0x28
    1e58:	46bd      	mov	sp, r7
    1e5a:	bd80      	pop	{r7, pc}
    1e5c:	0000ccd4 	.word	0x0000ccd4
    1e60:	0000cc60 	.word	0x0000cc60

00001e64 <getopt>:
    1e64:	e92d 41f0 	stmdb	sp!, {r4, r5, r6, r7, r8, lr}
    1e68:	4607      	mov	r7, r0
    1e6a:	460e      	mov	r6, r1
    1e6c:	4615      	mov	r5, r2
    1e6e:	f000 f88f 	bl	1f90 <getopt_state_get>
    1e72:	68c3      	ldr	r3, [r0, #12]
    1e74:	4604      	mov	r4, r0
    1e76:	b91b      	cbnz	r3, 1e80 <getopt+0x1c>
    1e78:	6943      	ldr	r3, [r0, #20]
    1e7a:	781a      	ldrb	r2, [r3, #0]
    1e7c:	2a00      	cmp	r2, #0
    1e7e:	d140      	bne.n	1f02 <getopt+0x9e>
    1e80:	2300      	movs	r3, #0
    1e82:	60e3      	str	r3, [r4, #12]
    1e84:	6863      	ldr	r3, [r4, #4]
    1e86:	42bb      	cmp	r3, r7
    1e88:	f856 2023 	ldr.w	r2, [r6, r3, lsl #2]
    1e8c:	db08      	blt.n	1ea0 <getopt+0x3c>
    1e8e:	4b32      	ldr	r3, [pc, #200]	; (1f58 <getopt+0xf4>)
    1e90:	6163      	str	r3, [r4, #20]
    1e92:	4620      	mov	r0, r4
    1e94:	f000 f862 	bl	1f5c <z_getopt_global_state_update>
    1e98:	f04f 30ff 	mov.w	r0, #4294967295	; 0xffffffff
    1e9c:	e8bd 81f0 	ldmia.w	sp!, {r4, r5, r6, r7, r8, pc}
    1ea0:	1c51      	adds	r1, r2, #1
    1ea2:	6161      	str	r1, [r4, #20]
    1ea4:	f892 8000 	ldrb.w	r8, [r2]
    1ea8:	f1b8 0f2d 	cmp.w	r8, #45	; 0x2d
    1eac:	d1ef      	bne.n	1e8e <getopt+0x2a>
    1eae:	1c91      	adds	r1, r2, #2
    1eb0:	6161      	str	r1, [r4, #20]
    1eb2:	7851      	ldrb	r1, [r2, #1]
    1eb4:	60a1      	str	r1, [r4, #8]
    1eb6:	292d      	cmp	r1, #45	; 0x2d
    1eb8:	d104      	bne.n	1ec4 <getopt+0x60>
    1eba:	7892      	ldrb	r2, [r2, #2]
    1ebc:	b96a      	cbnz	r2, 1eda <getopt+0x76>
    1ebe:	3301      	adds	r3, #1
    1ec0:	6063      	str	r3, [r4, #4]
    1ec2:	e7e4      	b.n	1e8e <getopt+0x2a>
    1ec4:	b949      	cbnz	r1, 1eda <getopt+0x76>
    1ec6:	4b24      	ldr	r3, [pc, #144]	; (1f58 <getopt+0xf4>)
    1ec8:	6163      	str	r3, [r4, #20]
    1eca:	4641      	mov	r1, r8
    1ecc:	4628      	mov	r0, r5
    1ece:	f00a f988 	bl	c1e2 <strchr>
    1ed2:	2800      	cmp	r0, #0
    1ed4:	d0dd      	beq.n	1e92 <getopt+0x2e>
    1ed6:	f8c4 8008 	str.w	r8, [r4, #8]
    1eda:	68a1      	ldr	r1, [r4, #8]
    1edc:	4628      	mov	r0, r5
    1ede:	f00a f980 	bl	c1e2 <strchr>
    1ee2:	68a3      	ldr	r3, [r4, #8]
    1ee4:	2b3a      	cmp	r3, #58	; 0x3a
    1ee6:	6963      	ldr	r3, [r4, #20]
    1ee8:	d001      	beq.n	1eee <getopt+0x8a>
    1eea:	461a      	mov	r2, r3
    1eec:	b970      	cbnz	r0, 1f0c <getopt+0xa8>
    1eee:	781b      	ldrb	r3, [r3, #0]
    1ef0:	b913      	cbnz	r3, 1ef8 <getopt+0x94>
    1ef2:	6863      	ldr	r3, [r4, #4]
    1ef4:	3301      	adds	r3, #1
    1ef6:	6063      	str	r3, [r4, #4]
    1ef8:	4620      	mov	r0, r4
    1efa:	f000 f82f 	bl	1f5c <z_getopt_global_state_update>
    1efe:	203f      	movs	r0, #63	; 0x3f
    1f00:	e7cc      	b.n	1e9c <getopt+0x38>
    1f02:	1c5a      	adds	r2, r3, #1
    1f04:	6142      	str	r2, [r0, #20]
    1f06:	781b      	ldrb	r3, [r3, #0]
    1f08:	6083      	str	r3, [r0, #8]
    1f0a:	e7e6      	b.n	1eda <getopt+0x76>
    1f0c:	7841      	ldrb	r1, [r0, #1]
    1f0e:	293a      	cmp	r1, #58	; 0x3a
    1f10:	d00b      	beq.n	1f2a <getopt+0xc6>
    1f12:	2200      	movs	r2, #0
    1f14:	6122      	str	r2, [r4, #16]
    1f16:	781b      	ldrb	r3, [r3, #0]
    1f18:	b913      	cbnz	r3, 1f20 <getopt+0xbc>
    1f1a:	6863      	ldr	r3, [r4, #4]
    1f1c:	3301      	adds	r3, #1
    1f1e:	6063      	str	r3, [r4, #4]
    1f20:	4620      	mov	r0, r4
    1f22:	f000 f81b 	bl	1f5c <z_getopt_global_state_update>
    1f26:	68a0      	ldr	r0, [r4, #8]
    1f28:	e7b8      	b.n	1e9c <getopt+0x38>
    1f2a:	7810      	ldrb	r0, [r2, #0]
    1f2c:	6863      	ldr	r3, [r4, #4]
    1f2e:	490a      	ldr	r1, [pc, #40]	; (1f58 <getopt+0xf4>)
    1f30:	b928      	cbnz	r0, 1f3e <getopt+0xda>
    1f32:	3301      	adds	r3, #1
    1f34:	429f      	cmp	r7, r3
    1f36:	6063      	str	r3, [r4, #4]
    1f38:	dd04      	ble.n	1f44 <getopt+0xe0>
    1f3a:	f856 2023 	ldr.w	r2, [r6, r3, lsl #2]
    1f3e:	e9c4 2104 	strd	r2, r1, [r4, #16]
    1f42:	e7ea      	b.n	1f1a <getopt+0xb6>
    1f44:	6161      	str	r1, [r4, #20]
    1f46:	782d      	ldrb	r5, [r5, #0]
    1f48:	2d3a      	cmp	r5, #58	; 0x3a
    1f4a:	4620      	mov	r0, r4
    1f4c:	d1d5      	bne.n	1efa <getopt+0x96>
    1f4e:	f000 f805 	bl	1f5c <z_getopt_global_state_update>
    1f52:	4628      	mov	r0, r5
    1f54:	e7a2      	b.n	1e9c <getopt+0x38>
    1f56:	bf00      	nop
    1f58:	0000d6db 	.word	0x0000d6db

00001f5c <z_getopt_global_state_update>:
    1f5c:	4b07      	ldr	r3, [pc, #28]	; (1f7c <z_getopt_global_state_update+0x20>)
    1f5e:	6802      	ldr	r2, [r0, #0]
    1f60:	601a      	str	r2, [r3, #0]
    1f62:	4b07      	ldr	r3, [pc, #28]	; (1f80 <z_getopt_global_state_update+0x24>)
    1f64:	6842      	ldr	r2, [r0, #4]
    1f66:	601a      	str	r2, [r3, #0]
    1f68:	4b06      	ldr	r3, [pc, #24]	; (1f84 <z_getopt_global_state_update+0x28>)
    1f6a:	6882      	ldr	r2, [r0, #8]
    1f6c:	601a      	str	r2, [r3, #0]
    1f6e:	4b06      	ldr	r3, [pc, #24]	; (1f88 <z_getopt_global_state_update+0x2c>)
    1f70:	68c2      	ldr	r2, [r0, #12]
    1f72:	601a      	str	r2, [r3, #0]
    1f74:	4b05      	ldr	r3, [pc, #20]	; (1f8c <z_getopt_global_state_update+0x30>)
    1f76:	6902      	ldr	r2, [r0, #16]
    1f78:	601a      	str	r2, [r3, #0]
    1f7a:	4770      	bx	lr
    1f7c:	20000020 	.word	0x20000020
    1f80:	2000001c 	.word	0x2000001c
    1f84:	20000838 	.word	0x20000838
    1f88:	20000834 	.word	0x20000834
    1f8c:	20000830 	.word	0x20000830

00001f90 <getopt_state_get>:
    1f90:	4800      	ldr	r0, [pc, #0]	; (1f94 <getopt_state_get+0x4>)
    1f92:	4770      	bx	lr
    1f94:	20000004 	.word	0x20000004

00001f98 <char_out>:
    1f98:	4b01      	ldr	r3, [pc, #4]	; (1fa0 <char_out+0x8>)
    1f9a:	681b      	ldr	r3, [r3, #0]
    1f9c:	4718      	bx	r3
    1f9e:	bf00      	nop
    1fa0:	20000024 	.word	0x20000024

00001fa4 <__printk_hook_install>:
    1fa4:	4b01      	ldr	r3, [pc, #4]	; (1fac <__printk_hook_install+0x8>)
    1fa6:	6018      	str	r0, [r3, #0]
    1fa8:	4770      	bx	lr
    1faa:	bf00      	nop
    1fac:	20000024 	.word	0x20000024

00001fb0 <vprintk>:
    1fb0:	b507      	push	{r0, r1, r2, lr}
    1fb2:	460b      	mov	r3, r1
    1fb4:	2100      	movs	r1, #0
    1fb6:	4602      	mov	r2, r0
    1fb8:	9100      	str	r1, [sp, #0]
    1fba:	4803      	ldr	r0, [pc, #12]	; (1fc8 <vprintk+0x18>)
    1fbc:	f000 f976 	bl	22ac <z_cbvprintf_impl>
    1fc0:	b003      	add	sp, #12
    1fc2:	f85d fb04 	ldr.w	pc, [sp], #4
    1fc6:	bf00      	nop
    1fc8:	00001f99 	.word	0x00001f99

00001fcc <process_event>:
    1fcc:	e92d 47f0 	stmdb	sp!, {r4, r5, r6, r7, r8, r9, sl, lr}
    1fd0:	8b05      	ldrh	r5, [r0, #24]
    1fd2:	4604      	mov	r4, r0
    1fd4:	0728      	lsls	r0, r5, #28
    1fd6:	4690      	mov	r8, r2
    1fd8:	d411      	bmi.n	1ffe <process_event+0x32>
    1fda:	2902      	cmp	r1, #2
    1fdc:	f005 0507 	and.w	r5, r5, #7
    1fe0:	f040 80cd 	bne.w	217e <process_event+0x1b2>
    1fe4:	4620      	mov	r0, r4
    1fe6:	f008 f84b 	bl	a080 <process_recheck>
    1fea:	b178      	cbz	r0, 200c <process_event+0x40>
    1fec:	3801      	subs	r0, #1
    1fee:	8b21      	ldrh	r1, [r4, #24]
    1ff0:	2804      	cmp	r0, #4
    1ff2:	d811      	bhi.n	2018 <process_event+0x4c>
    1ff4:	e8df f000 	tbb	[pc, r0]
    1ff8:	856d10c3 	.word	0x856d10c3
    1ffc:	95          	.byte	0x95
    1ffd:	00          	.byte	0x00
    1ffe:	2901      	cmp	r1, #1
    2000:	bf0c      	ite	eq
    2002:	f045 0510 	orreq.w	r5, r5, #16
    2006:	f045 0520 	orrne.w	r5, r5, #32
    200a:	8325      	strh	r5, [r4, #24]
    200c:	f388 8811 	msr	BASEPRI, r8
    2010:	f3bf 8f6f 	isb	sy
    2014:	e8bd 87f0 	ldmia.w	sp!, {r4, r5, r6, r7, r8, r9, sl, pc}
    2018:	f001 0a07 	and.w	sl, r1, #7
    201c:	45aa      	cmp	sl, r5
    201e:	f000 80a6 	beq.w	216e <process_event+0x1a2>
    2022:	2700      	movs	r7, #0
    2024:	46b9      	mov	r9, r7
    2026:	463e      	mov	r6, r7
    2028:	68a3      	ldr	r3, [r4, #8]
    202a:	2b00      	cmp	r3, #0
    202c:	f000 80bd 	beq.w	21aa <process_event+0x1de>
    2030:	f041 0108 	orr.w	r1, r1, #8
    2034:	8321      	strh	r1, [r4, #24]
    2036:	f388 8811 	msr	BASEPRI, r8
    203a:	f3bf 8f6f 	isb	sy
    203e:	68a1      	ldr	r1, [r4, #8]
    2040:	2900      	cmp	r1, #0
    2042:	f000 80bb 	beq.w	21bc <process_event+0x1f0>
    2046:	680d      	ldr	r5, [r1, #0]
    2048:	2900      	cmp	r1, #0
    204a:	f000 80b7 	beq.w	21bc <process_event+0x1f0>
    204e:	f8d1 8004 	ldr.w	r8, [r1, #4]
    2052:	4633      	mov	r3, r6
    2054:	4652      	mov	r2, sl
    2056:	4620      	mov	r0, r4
    2058:	47c0      	blx	r8
    205a:	2d00      	cmp	r5, #0
    205c:	d076      	beq.n	214c <process_event+0x180>
    205e:	682b      	ldr	r3, [r5, #0]
    2060:	4629      	mov	r1, r5
    2062:	461d      	mov	r5, r3
    2064:	e7f0      	b.n	2048 <process_event+0x7c>
    2066:	f001 0307 	and.w	r3, r1, #7
    206a:	1f5a      	subs	r2, r3, #5
    206c:	2a01      	cmp	r2, #1
    206e:	d81b      	bhi.n	20a8 <process_event+0xdc>
    2070:	2200      	movs	r2, #0
    2072:	f021 0107 	bic.w	r1, r1, #7
    2076:	2b06      	cmp	r3, #6
    2078:	6827      	ldr	r7, [r4, #0]
    207a:	b289      	uxth	r1, r1
    207c:	e9c4 2200 	strd	r2, r2, [r4]
    2080:	d109      	bne.n	2096 <process_event+0xca>
    2082:	463b      	mov	r3, r7
    2084:	e003      	b.n	208e <process_event+0xc2>
    2086:	8b62      	ldrh	r2, [r4, #26]
    2088:	3201      	adds	r2, #1
    208a:	8362      	strh	r2, [r4, #26]
    208c:	681b      	ldr	r3, [r3, #0]
    208e:	2b00      	cmp	r3, #0
    2090:	d1f9      	bne.n	2086 <process_event+0xba>
    2092:	f041 0102 	orr.w	r1, r1, #2
    2096:	8321      	strh	r1, [r4, #24]
    2098:	4620      	mov	r0, r4
    209a:	f007 fff1 	bl	a080 <process_recheck>
    209e:	2800      	cmp	r0, #0
    20a0:	d07b      	beq.n	219a <process_event+0x1ce>
    20a2:	f041 0120 	orr.w	r1, r1, #32
    20a6:	e077      	b.n	2198 <process_event+0x1cc>
    20a8:	2b04      	cmp	r3, #4
    20aa:	d10a      	bne.n	20c2 <process_event+0xf6>
    20ac:	f021 0107 	bic.w	r1, r1, #7
    20b0:	b289      	uxth	r1, r1
    20b2:	8321      	strh	r1, [r4, #24]
    20b4:	4620      	mov	r0, r4
    20b6:	f007 ffe3 	bl	a080 <process_recheck>
    20ba:	b110      	cbz	r0, 20c2 <process_event+0xf6>
    20bc:	f041 0120 	orr.w	r1, r1, #32
    20c0:	8321      	strh	r1, [r4, #24]
    20c2:	8b21      	ldrh	r1, [r4, #24]
    20c4:	f001 0a07 	and.w	sl, r1, #7
    20c8:	45aa      	cmp	sl, r5
    20ca:	d050      	beq.n	216e <process_event+0x1a2>
    20cc:	2700      	movs	r7, #0
    20ce:	46b9      	mov	r9, r7
    20d0:	e7aa      	b.n	2028 <process_event+0x5c>
    20d2:	6923      	ldr	r3, [r4, #16]
    20d4:	f021 0107 	bic.w	r1, r1, #7
    20d8:	f041 0106 	orr.w	r1, r1, #6
    20dc:	2d06      	cmp	r5, #6
    20de:	f8d3 9000 	ldr.w	r9, [r3]
    20e2:	8321      	strh	r1, [r4, #24]
    20e4:	d12d      	bne.n	2142 <process_event+0x176>
    20e6:	f1b9 0f00 	cmp.w	r9, #0
    20ea:	d040      	beq.n	216e <process_event+0x1a2>
    20ec:	f041 0108 	orr.w	r1, r1, #8
    20f0:	8321      	strh	r1, [r4, #24]
    20f2:	f388 8811 	msr	BASEPRI, r8
    20f6:	f3bf 8f6f 	isb	sy
    20fa:	493a      	ldr	r1, [pc, #232]	; (21e4 <process_event+0x218>)
    20fc:	4620      	mov	r0, r4
    20fe:	47c8      	blx	r9
    2100:	e029      	b.n	2156 <process_event+0x18a>
    2102:	f021 0107 	bic.w	r1, r1, #7
    2106:	6923      	ldr	r3, [r4, #16]
    2108:	f041 0104 	orr.w	r1, r1, #4
    210c:	b289      	uxth	r1, r1
    210e:	2d04      	cmp	r5, #4
    2110:	f8d3 9004 	ldr.w	r9, [r3, #4]
    2114:	8321      	strh	r1, [r4, #24]
    2116:	d0e6      	beq.n	20e6 <process_event+0x11a>
    2118:	2700      	movs	r7, #0
    211a:	463e      	mov	r6, r7
    211c:	f04f 0a04 	mov.w	sl, #4
    2120:	e782      	b.n	2028 <process_event+0x5c>
    2122:	f021 0107 	bic.w	r1, r1, #7
    2126:	6923      	ldr	r3, [r4, #16]
    2128:	f041 0105 	orr.w	r1, r1, #5
    212c:	b289      	uxth	r1, r1
    212e:	2d05      	cmp	r5, #5
    2130:	f8d3 9008 	ldr.w	r9, [r3, #8]
    2134:	8321      	strh	r1, [r4, #24]
    2136:	d0d6      	beq.n	20e6 <process_event+0x11a>
    2138:	2700      	movs	r7, #0
    213a:	463e      	mov	r6, r7
    213c:	f04f 0a05 	mov.w	sl, #5
    2140:	e772      	b.n	2028 <process_event+0x5c>
    2142:	2700      	movs	r7, #0
    2144:	463e      	mov	r6, r7
    2146:	f04f 0a06 	mov.w	sl, #6
    214a:	e76d      	b.n	2028 <process_event+0x5c>
    214c:	462b      	mov	r3, r5
    214e:	e787      	b.n	2060 <process_event+0x94>
    2150:	f1b9 0f00 	cmp.w	r9, #0
    2154:	d1d1      	bne.n	20fa <process_event+0x12e>
    2156:	f04f 0320 	mov.w	r3, #32
    215a:	f3ef 8811 	mrs	r8, BASEPRI
    215e:	f383 8812 	msr	BASEPRI_MAX, r3
    2162:	f3bf 8f6f 	isb	sy
    2166:	8b23      	ldrh	r3, [r4, #24]
    2168:	f023 0308 	bic.w	r3, r3, #8
    216c:	8323      	strh	r3, [r4, #24]
    216e:	8b25      	ldrh	r5, [r4, #24]
    2170:	06ea      	lsls	r2, r5, #27
    2172:	d52e      	bpl.n	21d2 <process_event+0x206>
    2174:	f025 0310 	bic.w	r3, r5, #16
    2178:	8323      	strh	r3, [r4, #24]
    217a:	f005 0507 	and.w	r5, r5, #7
    217e:	6966      	ldr	r6, [r4, #20]
    2180:	8b21      	ldrh	r1, [r4, #24]
    2182:	2e00      	cmp	r6, #0
    2184:	f6bf af6f 	bge.w	2066 <process_event+0x9a>
    2188:	2300      	movs	r3, #0
    218a:	6827      	ldr	r7, [r4, #0]
    218c:	e9c4 3300 	strd	r3, r3, [r4]
    2190:	f021 0107 	bic.w	r1, r1, #7
    2194:	f041 0101 	orr.w	r1, r1, #1
    2198:	8321      	strh	r1, [r4, #24]
    219a:	8b21      	ldrh	r1, [r4, #24]
    219c:	f001 0a07 	and.w	sl, r1, #7
    21a0:	45aa      	cmp	sl, r5
    21a2:	f04f 0900 	mov.w	r9, #0
    21a6:	f47f af3f 	bne.w	2028 <process_event+0x5c>
    21aa:	2f00      	cmp	r7, #0
    21ac:	d09b      	beq.n	20e6 <process_event+0x11a>
    21ae:	f041 0108 	orr.w	r1, r1, #8
    21b2:	8321      	strh	r1, [r4, #24]
    21b4:	f388 8811 	msr	BASEPRI, r8
    21b8:	f3bf 8f6f 	isb	sy
    21bc:	2f00      	cmp	r7, #0
    21be:	d0c7      	beq.n	2150 <process_event+0x184>
    21c0:	683d      	ldr	r5, [r7, #0]
    21c2:	4639      	mov	r1, r7
    21c4:	4633      	mov	r3, r6
    21c6:	4652      	mov	r2, sl
    21c8:	4620      	mov	r0, r4
    21ca:	f007 ff85 	bl	a0d8 <notify_one>
    21ce:	462f      	mov	r7, r5
    21d0:	e7f4      	b.n	21bc <process_event+0x1f0>
    21d2:	06ab      	lsls	r3, r5, #26
    21d4:	f57f af1a 	bpl.w	200c <process_event+0x40>
    21d8:	f025 0320 	bic.w	r3, r5, #32
    21dc:	8323      	strh	r3, [r4, #24]
    21de:	f005 0507 	and.w	r5, r5, #7
    21e2:	e6ff      	b.n	1fe4 <process_event+0x18>
    21e4:	0000a105 	.word	0x0000a105

000021e8 <extract_decimal>:
    21e8:	b5f0      	push	{r4, r5, r6, r7, lr}
    21ea:	4e09      	ldr	r6, [pc, #36]	; (2210 <extract_decimal+0x28>)
    21ec:	6801      	ldr	r1, [r0, #0]
    21ee:	4602      	mov	r2, r0
    21f0:	270a      	movs	r7, #10
    21f2:	2000      	movs	r0, #0
    21f4:	460b      	mov	r3, r1
    21f6:	3101      	adds	r1, #1
    21f8:	781c      	ldrb	r4, [r3, #0]
    21fa:	5d35      	ldrb	r5, [r6, r4]
    21fc:	076d      	lsls	r5, r5, #29
    21fe:	d401      	bmi.n	2204 <extract_decimal+0x1c>
    2200:	6013      	str	r3, [r2, #0]
    2202:	bdf0      	pop	{r4, r5, r6, r7, pc}
    2204:	fb07 4300 	mla	r3, r7, r0, r4
    2208:	f1a3 0030 	sub.w	r0, r3, #48	; 0x30
    220c:	e7f2      	b.n	21f4 <extract_decimal+0xc>
    220e:	bf00      	nop
    2210:	0000e695 	.word	0x0000e695

00002214 <encode_uint>:
    2214:	e92d 4ff8 	stmdb	sp!, {r3, r4, r5, r6, r7, r8, r9, sl, fp, lr}
    2218:	4615      	mov	r5, r2
    221a:	469a      	mov	sl, r3
    221c:	78d3      	ldrb	r3, [r2, #3]
    221e:	4a22      	ldr	r2, [pc, #136]	; (22a8 <encode_uint+0x94>)
    2220:	f812 b003 	ldrb.w	fp, [r2, r3]
    2224:	2b6f      	cmp	r3, #111	; 0x6f
    2226:	4680      	mov	r8, r0
    2228:	460f      	mov	r7, r1
    222a:	f00b 0b03 	and.w	fp, fp, #3
    222e:	d029      	beq.n	2284 <encode_uint+0x70>
    2230:	d824      	bhi.n	227c <encode_uint+0x68>
    2232:	2b58      	cmp	r3, #88	; 0x58
    2234:	bf0c      	ite	eq
    2236:	2610      	moveq	r6, #16
    2238:	260a      	movne	r6, #10
    223a:	f8dd 9028 	ldr.w	r9, [sp, #40]	; 0x28
    223e:	4632      	mov	r2, r6
    2240:	2300      	movs	r3, #0
    2242:	4640      	mov	r0, r8
    2244:	4639      	mov	r1, r7
    2246:	f7fe fc03 	bl	a50 <__aeabi_uldivmod>
    224a:	2a09      	cmp	r2, #9
    224c:	b2d4      	uxtb	r4, r2
    224e:	d81e      	bhi.n	228e <encode_uint+0x7a>
    2250:	3430      	adds	r4, #48	; 0x30
    2252:	45b0      	cmp	r8, r6
    2254:	b2e4      	uxtb	r4, r4
    2256:	f177 0700 	sbcs.w	r7, r7, #0
    225a:	f809 4d01 	strb.w	r4, [r9, #-1]!
    225e:	d301      	bcc.n	2264 <encode_uint+0x50>
    2260:	45d1      	cmp	r9, sl
    2262:	d811      	bhi.n	2288 <encode_uint+0x74>
    2264:	782b      	ldrb	r3, [r5, #0]
    2266:	069b      	lsls	r3, r3, #26
    2268:	d505      	bpl.n	2276 <encode_uint+0x62>
    226a:	2e08      	cmp	r6, #8
    226c:	d115      	bne.n	229a <encode_uint+0x86>
    226e:	78ab      	ldrb	r3, [r5, #2]
    2270:	f043 0308 	orr.w	r3, r3, #8
    2274:	70ab      	strb	r3, [r5, #2]
    2276:	4648      	mov	r0, r9
    2278:	e8bd 8ff8 	ldmia.w	sp!, {r3, r4, r5, r6, r7, r8, r9, sl, fp, pc}
    227c:	f003 03f7 	and.w	r3, r3, #247	; 0xf7
    2280:	2b70      	cmp	r3, #112	; 0x70
    2282:	e7d7      	b.n	2234 <encode_uint+0x20>
    2284:	2608      	movs	r6, #8
    2286:	e7d8      	b.n	223a <encode_uint+0x26>
    2288:	4680      	mov	r8, r0
    228a:	460f      	mov	r7, r1
    228c:	e7d7      	b.n	223e <encode_uint+0x2a>
    228e:	f1bb 0f01 	cmp.w	fp, #1
    2292:	bf0c      	ite	eq
    2294:	3437      	addeq	r4, #55	; 0x37
    2296:	3457      	addne	r4, #87	; 0x57
    2298:	e7db      	b.n	2252 <encode_uint+0x3e>
    229a:	2e10      	cmp	r6, #16
    229c:	d1eb      	bne.n	2276 <encode_uint+0x62>
    229e:	78ab      	ldrb	r3, [r5, #2]
    22a0:	f043 0310 	orr.w	r3, r3, #16
    22a4:	e7e6      	b.n	2274 <encode_uint+0x60>
    22a6:	bf00      	nop
    22a8:	0000e695 	.word	0x0000e695

000022ac <z_cbvprintf_impl>:
    22ac:	e92d 4ff0 	stmdb	sp!, {r4, r5, r6, r7, r8, r9, sl, fp, lr}
    22b0:	b097      	sub	sp, #92	; 0x5c
    22b2:	4682      	mov	sl, r0
    22b4:	9103      	str	r1, [sp, #12]
    22b6:	4617      	mov	r7, r2
    22b8:	461c      	mov	r4, r3
    22ba:	2500      	movs	r5, #0
    22bc:	7838      	ldrb	r0, [r7, #0]
    22be:	b908      	cbnz	r0, 22c4 <z_cbvprintf_impl+0x18>
    22c0:	4628      	mov	r0, r5
    22c2:	e34a      	b.n	295a <z_cbvprintf_impl+0x6ae>
    22c4:	1c7b      	adds	r3, r7, #1
    22c6:	2825      	cmp	r0, #37	; 0x25
    22c8:	9304      	str	r3, [sp, #16]
    22ca:	d006      	beq.n	22da <z_cbvprintf_impl+0x2e>
    22cc:	9903      	ldr	r1, [sp, #12]
    22ce:	47d0      	blx	sl
    22d0:	2800      	cmp	r0, #0
    22d2:	f2c0 8342 	blt.w	295a <z_cbvprintf_impl+0x6ae>
    22d6:	3501      	adds	r5, #1
    22d8:	e1f0      	b.n	26bc <z_cbvprintf_impl+0x410>
    22da:	2218      	movs	r2, #24
    22dc:	2100      	movs	r1, #0
    22de:	a810      	add	r0, sp, #64	; 0x40
    22e0:	f009 ff44 	bl	c16c <memset>
    22e4:	787b      	ldrb	r3, [r7, #1]
    22e6:	2b25      	cmp	r3, #37	; 0x25
    22e8:	f000 80a3 	beq.w	2432 <z_cbvprintf_impl+0x186>
    22ec:	2300      	movs	r3, #0
    22ee:	1c79      	adds	r1, r7, #1
    22f0:	4698      	mov	r8, r3
    22f2:	469e      	mov	lr, r3
    22f4:	469c      	mov	ip, r3
    22f6:	4618      	mov	r0, r3
    22f8:	460e      	mov	r6, r1
    22fa:	f811 2b01 	ldrb.w	r2, [r1], #1
    22fe:	2a2b      	cmp	r2, #43	; 0x2b
    2300:	f000 80c6 	beq.w	2490 <z_cbvprintf_impl+0x1e4>
    2304:	f200 80bd 	bhi.w	2482 <z_cbvprintf_impl+0x1d6>
    2308:	2a20      	cmp	r2, #32
    230a:	f000 80c4 	beq.w	2496 <z_cbvprintf_impl+0x1ea>
    230e:	2a23      	cmp	r2, #35	; 0x23
    2310:	f000 80c4 	beq.w	249c <z_cbvprintf_impl+0x1f0>
    2314:	b12b      	cbz	r3, 2322 <z_cbvprintf_impl+0x76>
    2316:	f89d 3048 	ldrb.w	r3, [sp, #72]	; 0x48
    231a:	f043 0340 	orr.w	r3, r3, #64	; 0x40
    231e:	f88d 3048 	strb.w	r3, [sp, #72]	; 0x48
    2322:	f1b8 0f00 	cmp.w	r8, #0
    2326:	d005      	beq.n	2334 <z_cbvprintf_impl+0x88>
    2328:	f89d 3048 	ldrb.w	r3, [sp, #72]	; 0x48
    232c:	f043 0320 	orr.w	r3, r3, #32
    2330:	f88d 3048 	strb.w	r3, [sp, #72]	; 0x48
    2334:	f1be 0f00 	cmp.w	lr, #0
    2338:	d005      	beq.n	2346 <z_cbvprintf_impl+0x9a>
    233a:	f89d 3048 	ldrb.w	r3, [sp, #72]	; 0x48
    233e:	f043 0310 	orr.w	r3, r3, #16
    2342:	f88d 3048 	strb.w	r3, [sp, #72]	; 0x48
    2346:	f1bc 0f00 	cmp.w	ip, #0
    234a:	d005      	beq.n	2358 <z_cbvprintf_impl+0xac>
    234c:	f89d 3048 	ldrb.w	r3, [sp, #72]	; 0x48
    2350:	f043 0308 	orr.w	r3, r3, #8
    2354:	f88d 3048 	strb.w	r3, [sp, #72]	; 0x48
    2358:	b128      	cbz	r0, 2366 <z_cbvprintf_impl+0xba>
    235a:	f89d 3048 	ldrb.w	r3, [sp, #72]	; 0x48
    235e:	f043 0304 	orr.w	r3, r3, #4
    2362:	f88d 3048 	strb.w	r3, [sp, #72]	; 0x48
    2366:	f89d 3048 	ldrb.w	r3, [sp, #72]	; 0x48
    236a:	f003 0144 	and.w	r1, r3, #68	; 0x44
    236e:	2944      	cmp	r1, #68	; 0x44
    2370:	d103      	bne.n	237a <z_cbvprintf_impl+0xce>
    2372:	f36f 1386 	bfc	r3, #6, #1
    2376:	f88d 3048 	strb.w	r3, [sp, #72]	; 0x48
    237a:	f89d 3048 	ldrb.w	r3, [sp, #72]	; 0x48
    237e:	9609      	str	r6, [sp, #36]	; 0x24
    2380:	f043 0380 	orr.w	r3, r3, #128	; 0x80
    2384:	2a2a      	cmp	r2, #42	; 0x2a
    2386:	f88d 3048 	strb.w	r3, [sp, #72]	; 0x48
    238a:	f040 808c 	bne.w	24a6 <z_cbvprintf_impl+0x1fa>
    238e:	f89d 3049 	ldrb.w	r3, [sp, #73]	; 0x49
    2392:	f043 0301 	orr.w	r3, r3, #1
    2396:	f88d 3049 	strb.w	r3, [sp, #73]	; 0x49
    239a:	1c73      	adds	r3, r6, #1
    239c:	781a      	ldrb	r2, [r3, #0]
    239e:	2a2e      	cmp	r2, #46	; 0x2e
    23a0:	f89d 2049 	ldrb.w	r2, [sp, #73]	; 0x49
    23a4:	bf0c      	ite	eq
    23a6:	2101      	moveq	r1, #1
    23a8:	2100      	movne	r1, #0
    23aa:	f361 0241 	bfi	r2, r1, #1, #1
    23ae:	f88d 2049 	strb.w	r2, [sp, #73]	; 0x49
    23b2:	d10c      	bne.n	23ce <z_cbvprintf_impl+0x122>
    23b4:	1c5a      	adds	r2, r3, #1
    23b6:	9209      	str	r2, [sp, #36]	; 0x24
    23b8:	785a      	ldrb	r2, [r3, #1]
    23ba:	2a2a      	cmp	r2, #42	; 0x2a
    23bc:	f040 8083 	bne.w	24c6 <z_cbvprintf_impl+0x21a>
    23c0:	f89d 2049 	ldrb.w	r2, [sp, #73]	; 0x49
    23c4:	f042 0204 	orr.w	r2, r2, #4
    23c8:	f88d 2049 	strb.w	r2, [sp, #73]	; 0x49
    23cc:	3302      	adds	r3, #2
    23ce:	781a      	ldrb	r2, [r3, #0]
    23d0:	2a6c      	cmp	r2, #108	; 0x6c
    23d2:	f000 80a4 	beq.w	251e <z_cbvprintf_impl+0x272>
    23d6:	f200 8086 	bhi.w	24e6 <z_cbvprintf_impl+0x23a>
    23da:	2a68      	cmp	r2, #104	; 0x68
    23dc:	f000 808c 	beq.w	24f8 <z_cbvprintf_impl+0x24c>
    23e0:	2a6a      	cmp	r2, #106	; 0x6a
    23e2:	f000 80a5 	beq.w	2530 <z_cbvprintf_impl+0x284>
    23e6:	2a4c      	cmp	r2, #76	; 0x4c
    23e8:	f000 80aa 	beq.w	2540 <z_cbvprintf_impl+0x294>
    23ec:	461a      	mov	r2, r3
    23ee:	f812 3b01 	ldrb.w	r3, [r2], #1
    23f2:	9204      	str	r2, [sp, #16]
    23f4:	2b78      	cmp	r3, #120	; 0x78
    23f6:	f89d 2049 	ldrb.w	r2, [sp, #73]	; 0x49
    23fa:	f88d 304b 	strb.w	r3, [sp, #75]	; 0x4b
    23fe:	f200 8117 	bhi.w	2630 <z_cbvprintf_impl+0x384>
    2402:	2b6d      	cmp	r3, #109	; 0x6d
    2404:	f200 80a9 	bhi.w	255a <z_cbvprintf_impl+0x2ae>
    2408:	2b69      	cmp	r3, #105	; 0x69
    240a:	f200 8111 	bhi.w	2630 <z_cbvprintf_impl+0x384>
    240e:	2b57      	cmp	r3, #87	; 0x57
    2410:	f200 80be 	bhi.w	2590 <z_cbvprintf_impl+0x2e4>
    2414:	2b41      	cmp	r3, #65	; 0x41
    2416:	d003      	beq.n	2420 <z_cbvprintf_impl+0x174>
    2418:	3b45      	subs	r3, #69	; 0x45
    241a:	2b02      	cmp	r3, #2
    241c:	f200 8108 	bhi.w	2630 <z_cbvprintf_impl+0x384>
    2420:	f89d 304a 	ldrb.w	r3, [sp, #74]	; 0x4a
    2424:	2204      	movs	r2, #4
    2426:	f362 0302 	bfi	r3, r2, #0, #3
    242a:	f88d 304a 	strb.w	r3, [sp, #74]	; 0x4a
    242e:	2301      	movs	r3, #1
    2430:	e0ca      	b.n	25c8 <z_cbvprintf_impl+0x31c>
    2432:	1cba      	adds	r2, r7, #2
    2434:	9204      	str	r2, [sp, #16]
    2436:	f88d 304b 	strb.w	r3, [sp, #75]	; 0x4b
    243a:	f89d 3049 	ldrb.w	r3, [sp, #73]	; 0x49
    243e:	07da      	lsls	r2, r3, #31
    2440:	f140 80fd 	bpl.w	263e <z_cbvprintf_impl+0x392>
    2444:	f854 9b04 	ldr.w	r9, [r4], #4
    2448:	f1b9 0f00 	cmp.w	r9, #0
    244c:	da07      	bge.n	245e <z_cbvprintf_impl+0x1b2>
    244e:	f89d 2048 	ldrb.w	r2, [sp, #72]	; 0x48
    2452:	f042 0204 	orr.w	r2, r2, #4
    2456:	f88d 2048 	strb.w	r2, [sp, #72]	; 0x48
    245a:	f1c9 0900 	rsb	r9, r9, #0
    245e:	075e      	lsls	r6, r3, #29
    2460:	f140 80f6 	bpl.w	2650 <z_cbvprintf_impl+0x3a4>
    2464:	f854 bb04 	ldr.w	fp, [r4], #4
    2468:	f1bb 0f00 	cmp.w	fp, #0
    246c:	f280 80f5 	bge.w	265a <z_cbvprintf_impl+0x3ae>
    2470:	f89d 3049 	ldrb.w	r3, [sp, #73]	; 0x49
    2474:	f36f 0341 	bfc	r3, #1, #1
    2478:	f88d 3049 	strb.w	r3, [sp, #73]	; 0x49
    247c:	f04f 3bff 	mov.w	fp, #4294967295	; 0xffffffff
    2480:	e0eb      	b.n	265a <z_cbvprintf_impl+0x3ae>
    2482:	2a2d      	cmp	r2, #45	; 0x2d
    2484:	d00d      	beq.n	24a2 <z_cbvprintf_impl+0x1f6>
    2486:	2a30      	cmp	r2, #48	; 0x30
    2488:	f47f af44 	bne.w	2314 <z_cbvprintf_impl+0x68>
    248c:	2301      	movs	r3, #1
    248e:	e733      	b.n	22f8 <z_cbvprintf_impl+0x4c>
    2490:	f04f 0c01 	mov.w	ip, #1
    2494:	e730      	b.n	22f8 <z_cbvprintf_impl+0x4c>
    2496:	f04f 0e01 	mov.w	lr, #1
    249a:	e72d      	b.n	22f8 <z_cbvprintf_impl+0x4c>
    249c:	f04f 0801 	mov.w	r8, #1
    24a0:	e72a      	b.n	22f8 <z_cbvprintf_impl+0x4c>
    24a2:	2001      	movs	r0, #1
    24a4:	e728      	b.n	22f8 <z_cbvprintf_impl+0x4c>
    24a6:	a809      	add	r0, sp, #36	; 0x24
    24a8:	f7ff fe9e 	bl	21e8 <extract_decimal>
    24ac:	9b09      	ldr	r3, [sp, #36]	; 0x24
    24ae:	42b3      	cmp	r3, r6
    24b0:	f43f af74 	beq.w	239c <z_cbvprintf_impl+0xf0>
    24b4:	f89d 2048 	ldrb.w	r2, [sp, #72]	; 0x48
    24b8:	9013      	str	r0, [sp, #76]	; 0x4c
    24ba:	0fc0      	lsrs	r0, r0, #31
    24bc:	f360 0241 	bfi	r2, r0, #1, #1
    24c0:	f88d 2048 	strb.w	r2, [sp, #72]	; 0x48
    24c4:	e76a      	b.n	239c <z_cbvprintf_impl+0xf0>
    24c6:	a809      	add	r0, sp, #36	; 0x24
    24c8:	f7ff fe8e 	bl	21e8 <extract_decimal>
    24cc:	f89d 3048 	ldrb.w	r3, [sp, #72]	; 0x48
    24d0:	9014      	str	r0, [sp, #80]	; 0x50
    24d2:	f3c3 0240 	ubfx	r2, r3, #1, #1
    24d6:	ea42 72d0 	orr.w	r2, r2, r0, lsr #31
    24da:	f362 0341 	bfi	r3, r2, #1, #1
    24de:	f88d 3048 	strb.w	r3, [sp, #72]	; 0x48
    24e2:	9b09      	ldr	r3, [sp, #36]	; 0x24
    24e4:	e773      	b.n	23ce <z_cbvprintf_impl+0x122>
    24e6:	2a74      	cmp	r2, #116	; 0x74
    24e8:	d026      	beq.n	2538 <z_cbvprintf_impl+0x28c>
    24ea:	2a7a      	cmp	r2, #122	; 0x7a
    24ec:	f47f af7e 	bne.w	23ec <z_cbvprintf_impl+0x140>
    24f0:	f89d 2049 	ldrb.w	r2, [sp, #73]	; 0x49
    24f4:	2106      	movs	r1, #6
    24f6:	e00c      	b.n	2512 <z_cbvprintf_impl+0x266>
    24f8:	785a      	ldrb	r2, [r3, #1]
    24fa:	2a68      	cmp	r2, #104	; 0x68
    24fc:	f89d 2049 	ldrb.w	r2, [sp, #73]	; 0x49
    2500:	d106      	bne.n	2510 <z_cbvprintf_impl+0x264>
    2502:	2101      	movs	r1, #1
    2504:	f361 02c6 	bfi	r2, r1, #3, #4
    2508:	f88d 2049 	strb.w	r2, [sp, #73]	; 0x49
    250c:	3302      	adds	r3, #2
    250e:	e76d      	b.n	23ec <z_cbvprintf_impl+0x140>
    2510:	2102      	movs	r1, #2
    2512:	f361 02c6 	bfi	r2, r1, #3, #4
    2516:	f88d 2049 	strb.w	r2, [sp, #73]	; 0x49
    251a:	3301      	adds	r3, #1
    251c:	e766      	b.n	23ec <z_cbvprintf_impl+0x140>
    251e:	785a      	ldrb	r2, [r3, #1]
    2520:	2a6c      	cmp	r2, #108	; 0x6c
    2522:	f89d 2049 	ldrb.w	r2, [sp, #73]	; 0x49
    2526:	d101      	bne.n	252c <z_cbvprintf_impl+0x280>
    2528:	2104      	movs	r1, #4
    252a:	e7eb      	b.n	2504 <z_cbvprintf_impl+0x258>
    252c:	2103      	movs	r1, #3
    252e:	e7f0      	b.n	2512 <z_cbvprintf_impl+0x266>
    2530:	f89d 2049 	ldrb.w	r2, [sp, #73]	; 0x49
    2534:	2105      	movs	r1, #5
    2536:	e7ec      	b.n	2512 <z_cbvprintf_impl+0x266>
    2538:	f89d 2049 	ldrb.w	r2, [sp, #73]	; 0x49
    253c:	2107      	movs	r1, #7
    253e:	e7e8      	b.n	2512 <z_cbvprintf_impl+0x266>
    2540:	f8bd 2048 	ldrh.w	r2, [sp, #72]	; 0x48
    2544:	f422 42f0 	bic.w	r2, r2, #30720	; 0x7800
    2548:	f022 0202 	bic.w	r2, r2, #2
    254c:	f442 4280 	orr.w	r2, r2, #16384	; 0x4000
    2550:	f042 0202 	orr.w	r2, r2, #2
    2554:	f8ad 2048 	strh.w	r2, [sp, #72]	; 0x48
    2558:	e7df      	b.n	251a <z_cbvprintf_impl+0x26e>
    255a:	3b6e      	subs	r3, #110	; 0x6e
    255c:	b2d9      	uxtb	r1, r3
    255e:	2301      	movs	r3, #1
    2560:	408b      	lsls	r3, r1
    2562:	f240 4182 	movw	r1, #1154	; 0x482
    2566:	420b      	tst	r3, r1
    2568:	d138      	bne.n	25dc <z_cbvprintf_impl+0x330>
    256a:	f013 0f24 	tst.w	r3, #36	; 0x24
    256e:	d152      	bne.n	2616 <z_cbvprintf_impl+0x36a>
    2570:	07d8      	lsls	r0, r3, #31
    2572:	d55d      	bpl.n	2630 <z_cbvprintf_impl+0x384>
    2574:	f89d 304a 	ldrb.w	r3, [sp, #74]	; 0x4a
    2578:	2103      	movs	r1, #3
    257a:	f361 0302 	bfi	r3, r1, #0, #3
    257e:	f88d 304a 	strb.w	r3, [sp, #74]	; 0x4a
    2582:	f002 0378 	and.w	r3, r2, #120	; 0x78
    2586:	f1a3 0140 	sub.w	r1, r3, #64	; 0x40
    258a:	424b      	negs	r3, r1
    258c:	414b      	adcs	r3, r1
    258e:	e01b      	b.n	25c8 <z_cbvprintf_impl+0x31c>
    2590:	f1a3 0158 	sub.w	r1, r3, #88	; 0x58
    2594:	b2c9      	uxtb	r1, r1
    2596:	2001      	movs	r0, #1
    2598:	fa00 f101 	lsl.w	r1, r0, r1
    259c:	f411 4f62 	tst.w	r1, #57856	; 0xe200
    25a0:	f47f af3e 	bne.w	2420 <z_cbvprintf_impl+0x174>
    25a4:	f640 0601 	movw	r6, #2049	; 0x801
    25a8:	4231      	tst	r1, r6
    25aa:	d11d      	bne.n	25e8 <z_cbvprintf_impl+0x33c>
    25ac:	f411 3f04 	tst.w	r1, #135168	; 0x21000
    25b0:	d03e      	beq.n	2630 <z_cbvprintf_impl+0x384>
    25b2:	f89d 304a 	ldrb.w	r3, [sp, #74]	; 0x4a
    25b6:	f360 0302 	bfi	r3, r0, #0, #3
    25ba:	f002 0278 	and.w	r2, r2, #120	; 0x78
    25be:	2a40      	cmp	r2, #64	; 0x40
    25c0:	f88d 304a 	strb.w	r3, [sp, #74]	; 0x4a
    25c4:	d034      	beq.n	2630 <z_cbvprintf_impl+0x384>
    25c6:	2300      	movs	r3, #0
    25c8:	f89d 2048 	ldrb.w	r2, [sp, #72]	; 0x48
    25cc:	f3c2 0140 	ubfx	r1, r2, #1, #1
    25d0:	430b      	orrs	r3, r1
    25d2:	f363 0241 	bfi	r2, r3, #1, #1
    25d6:	f88d 2048 	strb.w	r2, [sp, #72]	; 0x48
    25da:	e72e      	b.n	243a <z_cbvprintf_impl+0x18e>
    25dc:	f89d 304a 	ldrb.w	r3, [sp, #74]	; 0x4a
    25e0:	2102      	movs	r1, #2
    25e2:	f361 0302 	bfi	r3, r1, #0, #3
    25e6:	e7e8      	b.n	25ba <z_cbvprintf_impl+0x30e>
    25e8:	f89d 104a 	ldrb.w	r1, [sp, #74]	; 0x4a
    25ec:	2002      	movs	r0, #2
    25ee:	f002 0278 	and.w	r2, r2, #120	; 0x78
    25f2:	f360 0102 	bfi	r1, r0, #0, #3
    25f6:	2a40      	cmp	r2, #64	; 0x40
    25f8:	f88d 104a 	strb.w	r1, [sp, #74]	; 0x4a
    25fc:	bf02      	ittt	eq
    25fe:	f89d 1048 	ldrbeq.w	r1, [sp, #72]	; 0x48
    2602:	f041 0101 	orreq.w	r1, r1, #1
    2606:	f88d 1048 	strbeq.w	r1, [sp, #72]	; 0x48
    260a:	2b63      	cmp	r3, #99	; 0x63
    260c:	d1db      	bne.n	25c6 <z_cbvprintf_impl+0x31a>
    260e:	1e13      	subs	r3, r2, #0
    2610:	bf18      	it	ne
    2612:	2301      	movne	r3, #1
    2614:	e7d8      	b.n	25c8 <z_cbvprintf_impl+0x31c>
    2616:	f89d 304a 	ldrb.w	r3, [sp, #74]	; 0x4a
    261a:	2103      	movs	r1, #3
    261c:	f361 0302 	bfi	r3, r1, #0, #3
    2620:	f012 0f78 	tst.w	r2, #120	; 0x78
    2624:	f88d 304a 	strb.w	r3, [sp, #74]	; 0x4a
    2628:	bf14      	ite	ne
    262a:	2301      	movne	r3, #1
    262c:	2300      	moveq	r3, #0
    262e:	e7cb      	b.n	25c8 <z_cbvprintf_impl+0x31c>
    2630:	f89d 3048 	ldrb.w	r3, [sp, #72]	; 0x48
    2634:	f043 0301 	orr.w	r3, r3, #1
    2638:	f88d 3048 	strb.w	r3, [sp, #72]	; 0x48
    263c:	e7c3      	b.n	25c6 <z_cbvprintf_impl+0x31a>
    263e:	f99d 2048 	ldrsb.w	r2, [sp, #72]	; 0x48
    2642:	2a00      	cmp	r2, #0
    2644:	bfb4      	ite	lt
    2646:	f8dd 904c 	ldrlt.w	r9, [sp, #76]	; 0x4c
    264a:	f04f 39ff 	movge.w	r9, #4294967295	; 0xffffffff
    264e:	e706      	b.n	245e <z_cbvprintf_impl+0x1b2>
    2650:	0798      	lsls	r0, r3, #30
    2652:	f57f af13 	bpl.w	247c <z_cbvprintf_impl+0x1d0>
    2656:	f8dd b050 	ldr.w	fp, [sp, #80]	; 0x50
    265a:	f89d 1049 	ldrb.w	r1, [sp, #73]	; 0x49
    265e:	2300      	movs	r3, #0
    2660:	e9cd 3313 	strd	r3, r3, [sp, #76]	; 0x4c
    2664:	f89d 304a 	ldrb.w	r3, [sp, #74]	; 0x4a
    2668:	f003 0307 	and.w	r3, r3, #7
    266c:	2b01      	cmp	r3, #1
    266e:	f3c1 01c3 	ubfx	r1, r1, #3, #4
    2672:	d133      	bne.n	26dc <z_cbvprintf_impl+0x430>
    2674:	1ecb      	subs	r3, r1, #3
    2676:	2b04      	cmp	r3, #4
    2678:	d804      	bhi.n	2684 <z_cbvprintf_impl+0x3d8>
    267a:	e8df f003 	tbb	[pc, r3]
    267e:	4621      	.short	0x4621
    2680:	2146      	.short	0x2146
    2682:	21          	.byte	0x21
    2683:	00          	.byte	0x00
    2684:	6823      	ldr	r3, [r4, #0]
    2686:	2901      	cmp	r1, #1
    2688:	ea4f 72e3 	mov.w	r2, r3, asr #31
    268c:	e9cd 3210 	strd	r3, r2, [sp, #64]	; 0x40
    2690:	d11c      	bne.n	26cc <z_cbvprintf_impl+0x420>
    2692:	f99d 3040 	ldrsb.w	r3, [sp, #64]	; 0x40
    2696:	17da      	asrs	r2, r3, #31
    2698:	e9cd 3210 	strd	r3, r2, [sp, #64]	; 0x40
    269c:	3404      	adds	r4, #4
    269e:	f89d 3048 	ldrb.w	r3, [sp, #72]	; 0x48
    26a2:	f013 0603 	ands.w	r6, r3, #3
    26a6:	d050      	beq.n	274a <z_cbvprintf_impl+0x49e>
    26a8:	9b04      	ldr	r3, [sp, #16]
    26aa:	9903      	ldr	r1, [sp, #12]
    26ac:	463a      	mov	r2, r7
    26ae:	4650      	mov	r0, sl
    26b0:	f007 fdce 	bl	a250 <outs>
    26b4:	2800      	cmp	r0, #0
    26b6:	f2c0 8150 	blt.w	295a <z_cbvprintf_impl+0x6ae>
    26ba:	4405      	add	r5, r0
    26bc:	9f04      	ldr	r7, [sp, #16]
    26be:	e5fd      	b.n	22bc <z_cbvprintf_impl+0x10>
    26c0:	f854 3b04 	ldr.w	r3, [r4], #4
    26c4:	17da      	asrs	r2, r3, #31
    26c6:	e9cd 3210 	strd	r3, r2, [sp, #64]	; 0x40
    26ca:	e7e8      	b.n	269e <z_cbvprintf_impl+0x3f2>
    26cc:	2902      	cmp	r1, #2
    26ce:	d1e5      	bne.n	269c <z_cbvprintf_impl+0x3f0>
    26d0:	b21a      	sxth	r2, r3
    26d2:	f343 33c0 	sbfx	r3, r3, #15, #1
    26d6:	e9cd 2310 	strd	r2, r3, [sp, #64]	; 0x40
    26da:	e7df      	b.n	269c <z_cbvprintf_impl+0x3f0>
    26dc:	2b02      	cmp	r3, #2
    26de:	d124      	bne.n	272a <z_cbvprintf_impl+0x47e>
    26e0:	1ecb      	subs	r3, r1, #3
    26e2:	2b04      	cmp	r3, #4
    26e4:	d804      	bhi.n	26f0 <z_cbvprintf_impl+0x444>
    26e6:	e8df f003 	tbb	[pc, r3]
    26ea:	1018      	.short	0x1018
    26ec:	1810      	.short	0x1810
    26ee:	18          	.byte	0x18
    26ef:	00          	.byte	0x00
    26f0:	2901      	cmp	r1, #1
    26f2:	f854 3b04 	ldr.w	r3, [r4], #4
    26f6:	f04f 0200 	mov.w	r2, #0
    26fa:	d014      	beq.n	2726 <z_cbvprintf_impl+0x47a>
    26fc:	2902      	cmp	r1, #2
    26fe:	e9cd 3210 	strd	r3, r2, [sp, #64]	; 0x40
    2702:	d1cc      	bne.n	269e <z_cbvprintf_impl+0x3f2>
    2704:	b29b      	uxth	r3, r3
    2706:	9310      	str	r3, [sp, #64]	; 0x40
    2708:	e7c9      	b.n	269e <z_cbvprintf_impl+0x3f2>
    270a:	3407      	adds	r4, #7
    270c:	f024 0407 	bic.w	r4, r4, #7
    2710:	e8f4 2302 	ldrd	r2, r3, [r4], #8
    2714:	e9cd 2310 	strd	r2, r3, [sp, #64]	; 0x40
    2718:	e7c1      	b.n	269e <z_cbvprintf_impl+0x3f2>
    271a:	f854 3b04 	ldr.w	r3, [r4], #4
    271e:	9310      	str	r3, [sp, #64]	; 0x40
    2720:	2300      	movs	r3, #0
    2722:	9311      	str	r3, [sp, #68]	; 0x44
    2724:	e7bb      	b.n	269e <z_cbvprintf_impl+0x3f2>
    2726:	b2db      	uxtb	r3, r3
    2728:	e7cd      	b.n	26c6 <z_cbvprintf_impl+0x41a>
    272a:	2b04      	cmp	r3, #4
    272c:	d108      	bne.n	2740 <z_cbvprintf_impl+0x494>
    272e:	3407      	adds	r4, #7
    2730:	f024 0407 	bic.w	r4, r4, #7
    2734:	e9d4 2300 	ldrd	r2, r3, [r4]
    2738:	3408      	adds	r4, #8
    273a:	e9cd 2310 	strd	r2, r3, [sp, #64]	; 0x40
    273e:	e7ae      	b.n	269e <z_cbvprintf_impl+0x3f2>
    2740:	2b03      	cmp	r3, #3
    2742:	d1ac      	bne.n	269e <z_cbvprintf_impl+0x3f2>
    2744:	f854 3b04 	ldr.w	r3, [r4], #4
    2748:	e7dd      	b.n	2706 <z_cbvprintf_impl+0x45a>
    274a:	f89d 004b 	ldrb.w	r0, [sp, #75]	; 0x4b
    274e:	2878      	cmp	r0, #120	; 0x78
    2750:	d8b4      	bhi.n	26bc <z_cbvprintf_impl+0x410>
    2752:	2862      	cmp	r0, #98	; 0x62
    2754:	d81c      	bhi.n	2790 <z_cbvprintf_impl+0x4e4>
    2756:	2825      	cmp	r0, #37	; 0x25
    2758:	f43f adb8 	beq.w	22cc <z_cbvprintf_impl+0x20>
    275c:	2858      	cmp	r0, #88	; 0x58
    275e:	d1ad      	bne.n	26bc <z_cbvprintf_impl+0x410>
    2760:	f10d 033e 	add.w	r3, sp, #62	; 0x3e
    2764:	9300      	str	r3, [sp, #0]
    2766:	e9dd 0110 	ldrd	r0, r1, [sp, #64]	; 0x40
    276a:	ab0a      	add	r3, sp, #40	; 0x28
    276c:	aa12      	add	r2, sp, #72	; 0x48
    276e:	f7ff fd51 	bl	2214 <encode_uint>
    2772:	f1bb 0f00 	cmp.w	fp, #0
    2776:	4607      	mov	r7, r0
    2778:	f280 8098 	bge.w	28ac <z_cbvprintf_impl+0x600>
    277c:	2f00      	cmp	r7, #0
    277e:	d09d      	beq.n	26bc <z_cbvprintf_impl+0x410>
    2780:	f10d 083e 	add.w	r8, sp, #62	; 0x3e
    2784:	eba8 0007 	sub.w	r0, r8, r7
    2788:	2e00      	cmp	r6, #0
    278a:	d04e      	beq.n	282a <z_cbvprintf_impl+0x57e>
    278c:	3001      	adds	r0, #1
    278e:	e04c      	b.n	282a <z_cbvprintf_impl+0x57e>
    2790:	3863      	subs	r0, #99	; 0x63
    2792:	2815      	cmp	r0, #21
    2794:	d892      	bhi.n	26bc <z_cbvprintf_impl+0x410>
    2796:	a201      	add	r2, pc, #4	; (adr r2, 279c <z_cbvprintf_impl+0x4f0>)
    2798:	f852 f020 	ldr.w	pc, [r2, r0, lsl #2]
    279c:	0000281b 	.word	0x0000281b
    27a0:	00002881 	.word	0x00002881
    27a4:	000026bd 	.word	0x000026bd
    27a8:	000026bd 	.word	0x000026bd
    27ac:	000026bd 	.word	0x000026bd
    27b0:	000026bd 	.word	0x000026bd
    27b4:	00002881 	.word	0x00002881
    27b8:	000026bd 	.word	0x000026bd
    27bc:	000026bd 	.word	0x000026bd
    27c0:	000026bd 	.word	0x000026bd
    27c4:	000026bd 	.word	0x000026bd
    27c8:	0000290b 	.word	0x0000290b
    27cc:	000028a7 	.word	0x000028a7
    27d0:	000028cd 	.word	0x000028cd
    27d4:	000026bd 	.word	0x000026bd
    27d8:	000026bd 	.word	0x000026bd
    27dc:	000027f5 	.word	0x000027f5
    27e0:	000026bd 	.word	0x000026bd
    27e4:	000028a7 	.word	0x000028a7
    27e8:	000026bd 	.word	0x000026bd
    27ec:	000026bd 	.word	0x000026bd
    27f0:	000028a7 	.word	0x000028a7
    27f4:	f1bb 0f00 	cmp.w	fp, #0
    27f8:	9f10      	ldr	r7, [sp, #64]	; 0x40
    27fa:	db0a      	blt.n	2812 <z_cbvprintf_impl+0x566>
    27fc:	4659      	mov	r1, fp
    27fe:	4638      	mov	r0, r7
    2800:	f009 fd29 	bl	c256 <strnlen>
    2804:	eb07 0800 	add.w	r8, r7, r0
    2808:	2f00      	cmp	r7, #0
    280a:	f43f af57 	beq.w	26bc <z_cbvprintf_impl+0x410>
    280e:	2600      	movs	r6, #0
    2810:	e00b      	b.n	282a <z_cbvprintf_impl+0x57e>
    2812:	4638      	mov	r0, r7
    2814:	f7ff f952 	bl	1abc <strlen>
    2818:	e7f4      	b.n	2804 <z_cbvprintf_impl+0x558>
    281a:	9b10      	ldr	r3, [sp, #64]	; 0x40
    281c:	f88d 3028 	strb.w	r3, [sp, #40]	; 0x28
    2820:	2600      	movs	r6, #0
    2822:	f10d 0829 	add.w	r8, sp, #41	; 0x29
    2826:	af0a      	add	r7, sp, #40	; 0x28
    2828:	2001      	movs	r0, #1
    282a:	f89d 304a 	ldrb.w	r3, [sp, #74]	; 0x4a
    282e:	f013 0210 	ands.w	r2, r3, #16
    2832:	9205      	str	r2, [sp, #20]
    2834:	f000 8084 	beq.w	2940 <z_cbvprintf_impl+0x694>
    2838:	3002      	adds	r0, #2
    283a:	065b      	lsls	r3, r3, #25
    283c:	f8dd b04c 	ldr.w	fp, [sp, #76]	; 0x4c
    2840:	bf48      	it	mi
    2842:	9b14      	ldrmi	r3, [sp, #80]	; 0x50
    2844:	4458      	add	r0, fp
    2846:	bf48      	it	mi
    2848:	18c0      	addmi	r0, r0, r3
    284a:	f1b9 0f00 	cmp.w	r9, #0
    284e:	f340 8091 	ble.w	2974 <z_cbvprintf_impl+0x6c8>
    2852:	f89d 2048 	ldrb.w	r2, [sp, #72]	; 0x48
    2856:	eba9 0900 	sub.w	r9, r9, r0
    285a:	f3c2 0380 	ubfx	r3, r2, #2, #1
    285e:	0750      	lsls	r0, r2, #29
    2860:	9306      	str	r3, [sp, #24]
    2862:	f100 8087 	bmi.w	2974 <z_cbvprintf_impl+0x6c8>
    2866:	0651      	lsls	r1, r2, #25
    2868:	d57a      	bpl.n	2960 <z_cbvprintf_impl+0x6b4>
    286a:	b13e      	cbz	r6, 287c <z_cbvprintf_impl+0x5d0>
    286c:	9903      	ldr	r1, [sp, #12]
    286e:	4630      	mov	r0, r6
    2870:	47d0      	blx	sl
    2872:	2800      	cmp	r0, #0
    2874:	db71      	blt.n	295a <z_cbvprintf_impl+0x6ae>
    2876:	9b06      	ldr	r3, [sp, #24]
    2878:	3501      	adds	r5, #1
    287a:	461e      	mov	r6, r3
    287c:	2230      	movs	r2, #48	; 0x30
    287e:	e070      	b.n	2962 <z_cbvprintf_impl+0x6b6>
    2880:	0719      	lsls	r1, r3, #28
    2882:	bf5c      	itt	pl
    2884:	f3c3 1300 	ubfxpl	r3, r3, #4, #1
    2888:	015e      	lslpl	r6, r3, #5
    288a:	e9dd 2310 	ldrd	r2, r3, [sp, #64]	; 0x40
    288e:	bf48      	it	mi
    2890:	262b      	movmi	r6, #43	; 0x2b
    2892:	2b00      	cmp	r3, #0
    2894:	f6bf af64 	bge.w	2760 <z_cbvprintf_impl+0x4b4>
    2898:	4252      	negs	r2, r2
    289a:	eb63 0343 	sbc.w	r3, r3, r3, lsl #1
    289e:	e9cd 2310 	strd	r2, r3, [sp, #64]	; 0x40
    28a2:	262d      	movs	r6, #45	; 0x2d
    28a4:	e75c      	b.n	2760 <z_cbvprintf_impl+0x4b4>
    28a6:	2600      	movs	r6, #0
    28a8:	e75a      	b.n	2760 <z_cbvprintf_impl+0x4b4>
    28aa:	2600      	movs	r6, #0
    28ac:	f89d 2048 	ldrb.w	r2, [sp, #72]	; 0x48
    28b0:	f10d 033e 	add.w	r3, sp, #62	; 0x3e
    28b4:	1bdb      	subs	r3, r3, r7
    28b6:	f36f 1286 	bfc	r2, #6, #1
    28ba:	459b      	cmp	fp, r3
    28bc:	f88d 2048 	strb.w	r2, [sp, #72]	; 0x48
    28c0:	f67f af5c 	bls.w	277c <z_cbvprintf_impl+0x4d0>
    28c4:	ebab 0303 	sub.w	r3, fp, r3
    28c8:	9313      	str	r3, [sp, #76]	; 0x4c
    28ca:	e757      	b.n	277c <z_cbvprintf_impl+0x4d0>
    28cc:	9810      	ldr	r0, [sp, #64]	; 0x40
    28ce:	b380      	cbz	r0, 2932 <z_cbvprintf_impl+0x686>
    28d0:	f10d 083e 	add.w	r8, sp, #62	; 0x3e
    28d4:	ab0a      	add	r3, sp, #40	; 0x28
    28d6:	f8cd 8000 	str.w	r8, [sp]
    28da:	aa12      	add	r2, sp, #72	; 0x48
    28dc:	2100      	movs	r1, #0
    28de:	f7ff fc99 	bl	2214 <encode_uint>
    28e2:	f8bd 304a 	ldrh.w	r3, [sp, #74]	; 0x4a
    28e6:	f003 03ef 	and.w	r3, r3, #239	; 0xef
    28ea:	f443 43f0 	orr.w	r3, r3, #30720	; 0x7800
    28ee:	f043 0310 	orr.w	r3, r3, #16
    28f2:	f1bb 0f00 	cmp.w	fp, #0
    28f6:	4607      	mov	r7, r0
    28f8:	f8ad 304a 	strh.w	r3, [sp, #74]	; 0x4a
    28fc:	dad5      	bge.n	28aa <z_cbvprintf_impl+0x5fe>
    28fe:	2800      	cmp	r0, #0
    2900:	f43f aedc 	beq.w	26bc <z_cbvprintf_impl+0x410>
    2904:	eba8 0000 	sub.w	r0, r8, r0
    2908:	e781      	b.n	280e <z_cbvprintf_impl+0x562>
    290a:	9b10      	ldr	r3, [sp, #64]	; 0x40
    290c:	2907      	cmp	r1, #7
    290e:	f63f aed5 	bhi.w	26bc <z_cbvprintf_impl+0x410>
    2912:	e8df f001 	tbb	[pc, r1]
    2916:	040c      	.short	0x040c
    2918:	08080c06 	.word	0x08080c06
    291c:	0c0c      	.short	0x0c0c
    291e:	701d      	strb	r5, [r3, #0]
    2920:	e6cc      	b.n	26bc <z_cbvprintf_impl+0x410>
    2922:	801d      	strh	r5, [r3, #0]
    2924:	e6ca      	b.n	26bc <z_cbvprintf_impl+0x410>
    2926:	17ea      	asrs	r2, r5, #31
    2928:	e9c3 5200 	strd	r5, r2, [r3]
    292c:	e6c6      	b.n	26bc <z_cbvprintf_impl+0x410>
    292e:	601d      	str	r5, [r3, #0]
    2930:	e6c4      	b.n	26bc <z_cbvprintf_impl+0x410>
    2932:	f8df 80bc 	ldr.w	r8, [pc, #188]	; 29f0 <z_cbvprintf_impl+0x744>
    2936:	4606      	mov	r6, r0
    2938:	f1a8 0705 	sub.w	r7, r8, #5
    293c:	2005      	movs	r0, #5
    293e:	e774      	b.n	282a <z_cbvprintf_impl+0x57e>
    2940:	071a      	lsls	r2, r3, #28
    2942:	bf48      	it	mi
    2944:	3001      	addmi	r0, #1
    2946:	e778      	b.n	283a <z_cbvprintf_impl+0x58e>
    2948:	9307      	str	r3, [sp, #28]
    294a:	4610      	mov	r0, r2
    294c:	9206      	str	r2, [sp, #24]
    294e:	9903      	ldr	r1, [sp, #12]
    2950:	47d0      	blx	sl
    2952:	2800      	cmp	r0, #0
    2954:	e9dd 2306 	ldrd	r2, r3, [sp, #24]
    2958:	da04      	bge.n	2964 <z_cbvprintf_impl+0x6b8>
    295a:	b017      	add	sp, #92	; 0x5c
    295c:	e8bd 8ff0 	ldmia.w	sp!, {r4, r5, r6, r7, r8, r9, sl, fp, pc}
    2960:	2220      	movs	r2, #32
    2962:	464b      	mov	r3, r9
    2964:	4619      	mov	r1, r3
    2966:	2900      	cmp	r1, #0
    2968:	f103 33ff 	add.w	r3, r3, #4294967295	; 0xffffffff
    296c:	dcec      	bgt.n	2948 <z_cbvprintf_impl+0x69c>
    296e:	444d      	add	r5, r9
    2970:	1a6d      	subs	r5, r5, r1
    2972:	4699      	mov	r9, r3
    2974:	b12e      	cbz	r6, 2982 <z_cbvprintf_impl+0x6d6>
    2976:	9903      	ldr	r1, [sp, #12]
    2978:	4630      	mov	r0, r6
    297a:	47d0      	blx	sl
    297c:	2800      	cmp	r0, #0
    297e:	dbec      	blt.n	295a <z_cbvprintf_impl+0x6ae>
    2980:	3501      	adds	r5, #1
    2982:	f89d 304a 	ldrb.w	r3, [sp, #74]	; 0x4a
    2986:	06da      	lsls	r2, r3, #27
    2988:	d401      	bmi.n	298e <z_cbvprintf_impl+0x6e2>
    298a:	071b      	lsls	r3, r3, #28
    298c:	d505      	bpl.n	299a <z_cbvprintf_impl+0x6ee>
    298e:	9903      	ldr	r1, [sp, #12]
    2990:	2030      	movs	r0, #48	; 0x30
    2992:	47d0      	blx	sl
    2994:	2800      	cmp	r0, #0
    2996:	dbe0      	blt.n	295a <z_cbvprintf_impl+0x6ae>
    2998:	3501      	adds	r5, #1
    299a:	9b05      	ldr	r3, [sp, #20]
    299c:	b133      	cbz	r3, 29ac <z_cbvprintf_impl+0x700>
    299e:	9903      	ldr	r1, [sp, #12]
    29a0:	f89d 004b 	ldrb.w	r0, [sp, #75]	; 0x4b
    29a4:	47d0      	blx	sl
    29a6:	2800      	cmp	r0, #0
    29a8:	dbd7      	blt.n	295a <z_cbvprintf_impl+0x6ae>
    29aa:	3501      	adds	r5, #1
    29ac:	44ab      	add	fp, r5
    29ae:	e005      	b.n	29bc <z_cbvprintf_impl+0x710>
    29b0:	9903      	ldr	r1, [sp, #12]
    29b2:	2030      	movs	r0, #48	; 0x30
    29b4:	47d0      	blx	sl
    29b6:	2800      	cmp	r0, #0
    29b8:	dbcf      	blt.n	295a <z_cbvprintf_impl+0x6ae>
    29ba:	3501      	adds	r5, #1
    29bc:	ebab 0305 	sub.w	r3, fp, r5
    29c0:	2b00      	cmp	r3, #0
    29c2:	dcf5      	bgt.n	29b0 <z_cbvprintf_impl+0x704>
    29c4:	9903      	ldr	r1, [sp, #12]
    29c6:	4643      	mov	r3, r8
    29c8:	463a      	mov	r2, r7
    29ca:	4650      	mov	r0, sl
    29cc:	f007 fc40 	bl	a250 <outs>
    29d0:	2800      	cmp	r0, #0
    29d2:	dbc2      	blt.n	295a <z_cbvprintf_impl+0x6ae>
    29d4:	4405      	add	r5, r0
    29d6:	44a9      	add	r9, r5
    29d8:	eba9 0305 	sub.w	r3, r9, r5
    29dc:	2b00      	cmp	r3, #0
    29de:	f77f ae6d 	ble.w	26bc <z_cbvprintf_impl+0x410>
    29e2:	9903      	ldr	r1, [sp, #12]
    29e4:	2020      	movs	r0, #32
    29e6:	47d0      	blx	sl
    29e8:	2800      	cmp	r0, #0
    29ea:	dbb6      	blt.n	295a <z_cbvprintf_impl+0x6ae>
    29ec:	3501      	adds	r5, #1
    29ee:	e7f3      	b.n	29d8 <z_cbvprintf_impl+0x72c>
    29f0:	0000d5a9 	.word	0x0000d5a9

000029f4 <sys_reboot>:
    29f4:	b508      	push	{r3, lr}
    29f6:	f04f 0220 	mov.w	r2, #32
    29fa:	f3ef 8311 	mrs	r3, BASEPRI
    29fe:	f382 8812 	msr	BASEPRI_MAX, r2
    2a02:	f3bf 8f6f 	isb	sy
    2a06:	f003 f8af 	bl	5b68 <sys_arch_reboot>
    2a0a:	4803      	ldr	r0, [pc, #12]	; (2a18 <sys_reboot+0x24>)
    2a0c:	f007 fabd 	bl	9f8a <printk>
    2a10:	f002 fc72 	bl	52f8 <arch_cpu_idle>
    2a14:	e7fc      	b.n	2a10 <sys_reboot+0x1c>
    2a16:	bf00      	nop
    2a18:	0000d5aa 	.word	0x0000d5aa

00002a1c <foldcase>:
    2a1c:	070b      	lsls	r3, r1, #28
    2a1e:	d506      	bpl.n	2a2e <foldcase+0x12>
    2a20:	4b03      	ldr	r3, [pc, #12]	; (2a30 <foldcase+0x14>)
    2a22:	5c1b      	ldrb	r3, [r3, r0]
    2a24:	f003 0303 	and.w	r3, r3, #3
    2a28:	2b01      	cmp	r3, #1
    2a2a:	bf08      	it	eq
    2a2c:	3020      	addeq	r0, #32
    2a2e:	4770      	bx	lr
    2a30:	0000e695 	.word	0x0000e695

00002a34 <z_arm_platform_init>:
    2a34:	f004 b892 	b.w	6b5c <SystemInit>

00002a38 <cmd_kernel_version>:
    2a38:	b513      	push	{r0, r1, r4, lr}
    2a3a:	4604      	mov	r4, r0
    2a3c:	f005 f8f8 	bl	7c30 <sys_kernel_version_get>
    2a40:	f3c0 2307 	ubfx	r3, r0, #8, #8
    2a44:	9301      	str	r3, [sp, #4]
    2a46:	f3c0 4307 	ubfx	r3, r0, #16, #8
    2a4a:	9300      	str	r3, [sp, #0]
    2a4c:	4a04      	ldr	r2, [pc, #16]	; (2a60 <cmd_kernel_version+0x28>)
    2a4e:	0e03      	lsrs	r3, r0, #24
    2a50:	2108      	movs	r1, #8
    2a52:	4620      	mov	r0, r4
    2a54:	f007 ffcc 	bl	a9f0 <shell_fprintf>
    2a58:	2000      	movs	r0, #0
    2a5a:	b002      	add	sp, #8
    2a5c:	bd10      	pop	{r4, pc}
    2a5e:	bf00      	nop
    2a60:	0000d5d3 	.word	0x0000d5d3

00002a64 <cmd_kernel_uptime>:
    2a64:	b538      	push	{r3, r4, r5, lr}
    2a66:	4604      	mov	r4, r0
    2a68:	f009 f9b1 	bl	bdce <z_impl_k_uptime_ticks>
    2a6c:	f44f 757a 	mov.w	r5, #1000	; 0x3e8
    2a70:	fba0 2305 	umull	r2, r3, r0, r5
    2a74:	fb05 3301 	mla	r3, r5, r1, r3
    2a78:	0bd2      	lsrs	r2, r2, #15
    2a7a:	ea42 4343 	orr.w	r3, r2, r3, lsl #17
    2a7e:	4620      	mov	r0, r4
    2a80:	4a02      	ldr	r2, [pc, #8]	; (2a8c <cmd_kernel_uptime+0x28>)
    2a82:	2108      	movs	r1, #8
    2a84:	f007 ffb4 	bl	a9f0 <shell_fprintf>
    2a88:	2000      	movs	r0, #0
    2a8a:	bd38      	pop	{r3, r4, r5, pc}
    2a8c:	0000d5ec 	.word	0x0000d5ec

00002a90 <cmd_kernel_threads>:
    2a90:	b510      	push	{r4, lr}
    2a92:	4604      	mov	r4, r0
    2a94:	f003 ff84 	bl	69a0 <sys_clock_elapsed>
    2a98:	4a08      	ldr	r2, [pc, #32]	; (2abc <cmd_kernel_threads+0x2c>)
    2a9a:	4603      	mov	r3, r0
    2a9c:	2108      	movs	r1, #8
    2a9e:	4620      	mov	r0, r4
    2aa0:	f007 ffa6 	bl	a9f0 <shell_fprintf>
    2aa4:	4a06      	ldr	r2, [pc, #24]	; (2ac0 <cmd_kernel_threads+0x30>)
    2aa6:	4620      	mov	r0, r4
    2aa8:	2108      	movs	r1, #8
    2aaa:	f007 ffa1 	bl	a9f0 <shell_fprintf>
    2aae:	4805      	ldr	r0, [pc, #20]	; (2ac4 <cmd_kernel_threads+0x34>)
    2ab0:	4621      	mov	r1, r4
    2ab2:	f004 ff39 	bl	7928 <k_thread_foreach>
    2ab6:	2000      	movs	r0, #0
    2ab8:	bd10      	pop	{r4, pc}
    2aba:	bf00      	nop
    2abc:	0000d5fb 	.word	0x0000d5fb
    2ac0:	0000d61a 	.word	0x0000d61a
    2ac4:	00002ac9 	.word	0x00002ac9

00002ac8 <shell_tdata_dump>:
    2ac8:	b5f0      	push	{r4, r5, r6, r7, lr}
    2aca:	b08f      	sub	sp, #60	; 0x3c
    2acc:	f8d0 70a0 	ldr.w	r7, [r0, #160]	; 0xa0
    2ad0:	4604      	mov	r4, r0
    2ad2:	460d      	mov	r5, r1
    2ad4:	f009 f82b 	bl	bb2e <k_thread_name_get>
    2ad8:	4606      	mov	r6, r0
    2ada:	f005 fcb1 	bl	8440 <z_impl_z_current_get>
    2ade:	4b24      	ldr	r3, [pc, #144]	; (2b70 <shell_tdata_dump+0xa8>)
    2ae0:	4a24      	ldr	r2, [pc, #144]	; (2b74 <shell_tdata_dump+0xac>)
    2ae2:	2e00      	cmp	r6, #0
    2ae4:	bf08      	it	eq
    2ae6:	461e      	moveq	r6, r3
    2ae8:	4b23      	ldr	r3, [pc, #140]	; (2b78 <shell_tdata_dump+0xb0>)
    2aea:	e9cd 4600 	strd	r4, r6, [sp]
    2aee:	4284      	cmp	r4, r0
    2af0:	bf18      	it	ne
    2af2:	4613      	movne	r3, r2
    2af4:	2108      	movs	r1, #8
    2af6:	4628      	mov	r0, r5
    2af8:	4a20      	ldr	r2, [pc, #128]	; (2b7c <shell_tdata_dump+0xb4>)
    2afa:	f007 ff79 	bl	a9f0 <shell_fprintf>
    2afe:	e9d4 230a 	ldrd	r2, r3, [r4, #40]	; 0x28
    2b02:	e9cd 2302 	strd	r2, r3, [sp, #8]
    2b06:	f994 300e 	ldrsb.w	r3, [r4, #14]
    2b0a:	9300      	str	r3, [sp, #0]
    2b0c:	7b23      	ldrb	r3, [r4, #12]
    2b0e:	4a1c      	ldr	r2, [pc, #112]	; (2b80 <shell_tdata_dump+0xb8>)
    2b10:	4628      	mov	r0, r5
    2b12:	2108      	movs	r1, #8
    2b14:	f007 ff6c 	bl	a9f0 <shell_fprintf>
    2b18:	a906      	add	r1, sp, #24
    2b1a:	2220      	movs	r2, #32
    2b1c:	4620      	mov	r0, r4
    2b1e:	f004 ff4b 	bl	79b8 <k_thread_state_str>
    2b22:	6e62      	ldr	r2, [r4, #100]	; 0x64
    2b24:	9200      	str	r2, [sp, #0]
    2b26:	4603      	mov	r3, r0
    2b28:	4a16      	ldr	r2, [pc, #88]	; (2b84 <shell_tdata_dump+0xbc>)
    2b2a:	2108      	movs	r1, #8
    2b2c:	4628      	mov	r0, r5
    2b2e:	f007 ff5f 	bl	a9f0 <shell_fprintf>
    2b32:	a905      	add	r1, sp, #20
    2b34:	4620      	mov	r0, r4
    2b36:	f009 f80a 	bl	bb4e <z_impl_k_thread_stack_space_get>
    2b3a:	4603      	mov	r3, r0
    2b3c:	b130      	cbz	r0, 2b4c <shell_tdata_dump+0x84>
    2b3e:	4a12      	ldr	r2, [pc, #72]	; (2b88 <shell_tdata_dump+0xc0>)
    2b40:	2108      	movs	r1, #8
    2b42:	4628      	mov	r0, r5
    2b44:	f007 ff54 	bl	a9f0 <shell_fprintf>
    2b48:	b00f      	add	sp, #60	; 0x3c
    2b4a:	bdf0      	pop	{r4, r5, r6, r7, pc}
    2b4c:	9a05      	ldr	r2, [sp, #20]
    2b4e:	2364      	movs	r3, #100	; 0x64
    2b50:	1ab9      	subs	r1, r7, r2
    2b52:	e9cd 2100 	strd	r2, r1, [sp]
    2b56:	434b      	muls	r3, r1
    2b58:	4a0c      	ldr	r2, [pc, #48]	; (2b8c <shell_tdata_dump+0xc4>)
    2b5a:	fbb3 f3f7 	udiv	r3, r3, r7
    2b5e:	2108      	movs	r1, #8
    2b60:	e9cd 7302 	strd	r7, r3, [sp, #8]
    2b64:	4628      	mov	r0, r5
    2b66:	463b      	mov	r3, r7
    2b68:	f007 ff42 	bl	a9f0 <shell_fprintf>
    2b6c:	e7ec      	b.n	2b48 <shell_tdata_dump+0x80>
    2b6e:	bf00      	nop
    2b70:	0000d626 	.word	0x0000d626
    2b74:	0000defb 	.word	0x0000defb
    2b78:	0000d624 	.word	0x0000d624
    2b7c:	0000d629 	.word	0x0000d629
    2b80:	0000d635 	.word	0x0000d635
    2b84:	0000d661 	.word	0x0000d661
    2b88:	0000d678 	.word	0x0000d678
    2b8c:	0000d6a5 	.word	0x0000d6a5

00002b90 <cmd_kernel_stacks>:
    2b90:	b530      	push	{r4, r5, lr}
    2b92:	b093      	sub	sp, #76	; 0x4c
    2b94:	2100      	movs	r1, #0
    2b96:	221c      	movs	r2, #28
    2b98:	4604      	mov	r4, r0
    2b9a:	a80b      	add	r0, sp, #44	; 0x2c
    2b9c:	910a      	str	r1, [sp, #40]	; 0x28
    2b9e:	f009 fae5 	bl	c16c <memset>
    2ba2:	481b      	ldr	r0, [pc, #108]	; (2c10 <cmd_kernel_stacks+0x80>)
    2ba4:	f7fe ff8a 	bl	1abc <strlen>
    2ba8:	f1c0 0020 	rsb	r0, r0, #32
    2bac:	2801      	cmp	r0, #1
    2bae:	d92d      	bls.n	2c0c <cmd_kernel_stacks+0x7c>
    2bb0:	4817      	ldr	r0, [pc, #92]	; (2c10 <cmd_kernel_stacks+0x80>)
    2bb2:	f7fe ff83 	bl	1abc <strlen>
    2bb6:	f1c0 0220 	rsb	r2, r0, #32
    2bba:	2320      	movs	r3, #32
    2bbc:	ad0a      	add	r5, sp, #40	; 0x28
    2bbe:	4619      	mov	r1, r3
    2bc0:	4628      	mov	r0, r5
    2bc2:	f009 fadb 	bl	c17c <__memset_chk>
    2bc6:	4621      	mov	r1, r4
    2bc8:	4812      	ldr	r0, [pc, #72]	; (2c14 <cmd_kernel_stacks+0x84>)
    2bca:	f004 fead 	bl	7928 <k_thread_foreach>
    2bce:	aa09      	add	r2, sp, #36	; 0x24
    2bd0:	f44f 6100 	mov.w	r1, #2048	; 0x800
    2bd4:	4810      	ldr	r0, [pc, #64]	; (2c18 <cmd_kernel_stacks+0x88>)
    2bd6:	f008 ffae 	bl	bb36 <z_stack_space_get>
    2bda:	9a09      	ldr	r2, [sp, #36]	; 0x24
    2bdc:	9501      	str	r5, [sp, #4]
    2bde:	f5c2 6100 	rsb	r1, r2, #2048	; 0x800
    2be2:	2364      	movs	r3, #100	; 0x64
    2be4:	434b      	muls	r3, r1
    2be6:	0adb      	lsrs	r3, r3, #11
    2be8:	9306      	str	r3, [sp, #24]
    2bea:	2500      	movs	r5, #0
    2bec:	f44f 6300 	mov.w	r3, #2048	; 0x800
    2bf0:	e9cd 1304 	strd	r1, r3, [sp, #16]
    2bf4:	e9cd 3202 	strd	r3, r2, [sp, #8]
    2bf8:	4620      	mov	r0, r4
    2bfa:	4b08      	ldr	r3, [pc, #32]	; (2c1c <cmd_kernel_stacks+0x8c>)
    2bfc:	4a08      	ldr	r2, [pc, #32]	; (2c20 <cmd_kernel_stacks+0x90>)
    2bfe:	9500      	str	r5, [sp, #0]
    2c00:	2108      	movs	r1, #8
    2c02:	f007 fef5 	bl	a9f0 <shell_fprintf>
    2c06:	4628      	mov	r0, r5
    2c08:	b013      	add	sp, #76	; 0x4c
    2c0a:	bd30      	pop	{r4, r5, pc}
    2c0c:	2201      	movs	r2, #1
    2c0e:	e7d4      	b.n	2bba <cmd_kernel_stacks+0x2a>
    2c10:	0000d6dc 	.word	0x0000d6dc
    2c14:	00002c95 	.word	0x00002c95
    2c18:	20002e00 	.word	0x20002e00
    2c1c:	20002dc0 	.word	0x20002dc0
    2c20:	0000d6e3 	.word	0x0000d6e3

00002c24 <cmd_kernel_cycles>:
    2c24:	b510      	push	{r4, lr}
    2c26:	4604      	mov	r4, r0
    2c28:	f008 fe17 	bl	b85a <sys_clock_cycle_get_32>
    2c2c:	4a03      	ldr	r2, [pc, #12]	; (2c3c <cmd_kernel_cycles+0x18>)
    2c2e:	4603      	mov	r3, r0
    2c30:	2108      	movs	r1, #8
    2c32:	4620      	mov	r0, r4
    2c34:	f007 fedc 	bl	a9f0 <shell_fprintf>
    2c38:	2000      	movs	r0, #0
    2c3a:	bd10      	pop	{r4, pc}
    2c3c:	0000d72c 	.word	0x0000d72c

00002c40 <cmd_kernel_sleep>:
    2c40:	b573      	push	{r0, r1, r4, r5, r6, lr}
    2c42:	4613      	mov	r3, r2
    2c44:	2200      	movs	r2, #0
    2c46:	9201      	str	r2, [sp, #4]
    2c48:	4604      	mov	r4, r0
    2c4a:	aa01      	add	r2, sp, #4
    2c4c:	6858      	ldr	r0, [r3, #4]
    2c4e:	210a      	movs	r1, #10
    2c50:	f007 ffbe 	bl	abd0 <shell_strtoul>
    2c54:	9d01      	ldr	r5, [sp, #4]
    2c56:	b995      	cbnz	r5, 2c7e <cmd_kernel_sleep+0x3e>
    2c58:	ea20 74e0 	bic.w	r4, r0, r0, asr #31
    2c5c:	f44f 4600 	mov.w	r6, #32768	; 0x8000
    2c60:	4629      	mov	r1, r5
    2c62:	f240 30e7 	movw	r0, #999	; 0x3e7
    2c66:	f44f 727a 	mov.w	r2, #1000	; 0x3e8
    2c6a:	2300      	movs	r3, #0
    2c6c:	fbc4 0106 	smlal	r0, r1, r4, r6
    2c70:	f7fd feee 	bl	a50 <__aeabi_uldivmod>
    2c74:	f005 fbca 	bl	840c <z_impl_k_sleep>
    2c78:	4628      	mov	r0, r5
    2c7a:	b002      	add	sp, #8
    2c7c:	bd70      	pop	{r4, r5, r6, pc}
    2c7e:	462b      	mov	r3, r5
    2c80:	4a03      	ldr	r2, [pc, #12]	; (2c90 <cmd_kernel_sleep+0x50>)
    2c82:	2101      	movs	r1, #1
    2c84:	4620      	mov	r0, r4
    2c86:	f007 feb3 	bl	a9f0 <shell_fprintf>
    2c8a:	9d01      	ldr	r5, [sp, #4]
    2c8c:	e7f4      	b.n	2c78 <cmd_kernel_sleep+0x38>
    2c8e:	bf00      	nop
    2c90:	0000d742 	.word	0x0000d742

00002c94 <shell_stack_dump>:
    2c94:	b5f0      	push	{r4, r5, r6, r7, lr}
    2c96:	4604      	mov	r4, r0
    2c98:	f8d0 60a0 	ldr.w	r6, [r0, #160]	; 0xa0
    2c9c:	b089      	sub	sp, #36	; 0x24
    2c9e:	460d      	mov	r5, r1
    2ca0:	a907      	add	r1, sp, #28
    2ca2:	f008 ff54 	bl	bb4e <z_impl_k_thread_stack_space_get>
    2ca6:	4603      	mov	r3, r0
    2ca8:	b130      	cbz	r0, 2cb8 <shell_stack_dump+0x24>
    2caa:	4a10      	ldr	r2, [pc, #64]	; (2cec <shell_stack_dump+0x58>)
    2cac:	2108      	movs	r1, #8
    2cae:	4628      	mov	r0, r5
    2cb0:	f007 fe9e 	bl	a9f0 <shell_fprintf>
    2cb4:	b009      	add	sp, #36	; 0x24
    2cb6:	bdf0      	pop	{r4, r5, r6, r7, pc}
    2cb8:	4620      	mov	r0, r4
    2cba:	f008 ff38 	bl	bb2e <k_thread_name_get>
    2cbe:	4f0c      	ldr	r7, [pc, #48]	; (2cf0 <shell_stack_dump+0x5c>)
    2cc0:	9a07      	ldr	r2, [sp, #28]
    2cc2:	2800      	cmp	r0, #0
    2cc4:	bf18      	it	ne
    2cc6:	4607      	movne	r7, r0
    2cc8:	1ab1      	subs	r1, r6, r2
    2cca:	2364      	movs	r3, #100	; 0x64
    2ccc:	e9cd 2102 	strd	r2, r1, [sp, #8]
    2cd0:	434b      	muls	r3, r1
    2cd2:	e9cd 7600 	strd	r7, r6, [sp]
    2cd6:	fbb3 f3f6 	udiv	r3, r3, r6
    2cda:	4a06      	ldr	r2, [pc, #24]	; (2cf4 <shell_stack_dump+0x60>)
    2cdc:	e9cd 6304 	strd	r6, r3, [sp, #16]
    2ce0:	2108      	movs	r1, #8
    2ce2:	4623      	mov	r3, r4
    2ce4:	4628      	mov	r0, r5
    2ce6:	f007 fe83 	bl	a9f0 <shell_fprintf>
    2cea:	e7e3      	b.n	2cb4 <shell_stack_dump+0x20>
    2cec:	0000d678 	.word	0x0000d678
    2cf0:	0000d626 	.word	0x0000d626
    2cf4:	0000d762 	.word	0x0000d762

00002cf8 <get_device_name>:
    2cf8:	b510      	push	{r4, lr}
    2cfa:	4603      	mov	r3, r0
    2cfc:	6800      	ldr	r0, [r0, #0]
    2cfe:	460c      	mov	r4, r1
    2d00:	4611      	mov	r1, r2
    2d02:	b108      	cbz	r0, 2d08 <get_device_name+0x10>
    2d04:	7802      	ldrb	r2, [r0, #0]
    2d06:	b922      	cbnz	r2, 2d12 <get_device_name+0x1a>
    2d08:	4a02      	ldr	r2, [pc, #8]	; (2d14 <get_device_name+0x1c>)
    2d0a:	4620      	mov	r0, r4
    2d0c:	f006 f846 	bl	8d9c <sniprintf>
    2d10:	4620      	mov	r0, r4
    2d12:	bd10      	pop	{r4, pc}
    2d14:	0000d87a 	.word	0x0000d87a

00002d18 <cmd_device_list_visitor>:
    2d18:	b510      	push	{r4, lr}
    2d1a:	680c      	ldr	r4, [r1, #0]
    2d1c:	e9d1 1201 	ldrd	r1, r2, [r1, #4]
    2d20:	f7ff ffea 	bl	2cf8 <get_device_name>
    2d24:	4a03      	ldr	r2, [pc, #12]	; (2d34 <cmd_device_list_visitor+0x1c>)
    2d26:	4603      	mov	r3, r0
    2d28:	2108      	movs	r1, #8
    2d2a:	4620      	mov	r0, r4
    2d2c:	f007 fe60 	bl	a9f0 <shell_fprintf>
    2d30:	2000      	movs	r0, #0
    2d32:	bd10      	pop	{r4, pc}
    2d34:	0000d87f 	.word	0x0000d87f

00002d38 <cmd_device_list>:
    2d38:	e92d 47f0 	stmdb	sp!, {r4, r5, r6, r7, r8, r9, sl, lr}
    2d3c:	b08a      	sub	sp, #40	; 0x28
    2d3e:	4605      	mov	r5, r0
    2d40:	a801      	add	r0, sp, #4
    2d42:	f004 fca9 	bl	7698 <z_device_get_all_static>
    2d46:	9e01      	ldr	r6, [sp, #4]
    2d48:	4a1b      	ldr	r2, [pc, #108]	; (2db8 <cmd_device_list+0x80>)
    2d4a:	f8df 8070 	ldr.w	r8, [pc, #112]	; 2dbc <cmd_device_list+0x84>
    2d4e:	f8df 9070 	ldr.w	r9, [pc, #112]	; 2dc0 <cmd_device_list+0x88>
    2d52:	f8df a070 	ldr.w	sl, [pc, #112]	; 2dc4 <cmd_device_list+0x8c>
    2d56:	2318      	movs	r3, #24
    2d58:	fb03 6600 	mla	r6, r3, r0, r6
    2d5c:	2108      	movs	r1, #8
    2d5e:	4628      	mov	r0, r5
    2d60:	f007 fe46 	bl	a9f0 <shell_fprintf>
    2d64:	9c01      	ldr	r4, [sp, #4]
    2d66:	42b4      	cmp	r4, r6
    2d68:	d303      	bcc.n	2d72 <cmd_device_list+0x3a>
    2d6a:	2000      	movs	r0, #0
    2d6c:	b00a      	add	sp, #40	; 0x28
    2d6e:	e8bd 87f0 	ldmia.w	sp!, {r4, r5, r6, r7, r8, r9, sl, pc}
    2d72:	af05      	add	r7, sp, #20
    2d74:	4639      	mov	r1, r7
    2d76:	2214      	movs	r2, #20
    2d78:	4620      	mov	r0, r4
    2d7a:	f7ff ffbd 	bl	2cf8 <get_device_name>
    2d7e:	4642      	mov	r2, r8
    2d80:	4603      	mov	r3, r0
    2d82:	2108      	movs	r1, #8
    2d84:	4628      	mov	r0, r5
    2d86:	f007 fe33 	bl	a9f0 <shell_fprintf>
    2d8a:	4620      	mov	r0, r4
    2d8c:	f008 fe39 	bl	ba02 <z_device_is_ready>
    2d90:	4a0d      	ldr	r2, [pc, #52]	; (2dc8 <cmd_device_list+0x90>)
    2d92:	2800      	cmp	r0, #0
    2d94:	bf0c      	ite	eq
    2d96:	464b      	moveq	r3, r9
    2d98:	4653      	movne	r3, sl
    2d9a:	2108      	movs	r1, #8
    2d9c:	4628      	mov	r0, r5
    2d9e:	f007 fe27 	bl	a9f0 <shell_fprintf>
    2da2:	2314      	movs	r3, #20
    2da4:	4620      	mov	r0, r4
    2da6:	4909      	ldr	r1, [pc, #36]	; (2dcc <cmd_device_list+0x94>)
    2da8:	9304      	str	r3, [sp, #16]
    2daa:	aa02      	add	r2, sp, #8
    2dac:	e9cd 5702 	strd	r5, r7, [sp, #8]
    2db0:	3418      	adds	r4, #24
    2db2:	f008 fe31 	bl	ba18 <device_required_foreach>
    2db6:	e7d6      	b.n	2d66 <cmd_device_list+0x2e>
    2db8:	0000d89e 	.word	0x0000d89e
    2dbc:	0000d8a8 	.word	0x0000d8a8
    2dc0:	0000d895 	.word	0x0000d895
    2dc4:	0000d88f 	.word	0x0000d88f
    2dc8:	0000d8ad 	.word	0x0000d8ad
    2dcc:	00002d19 	.word	0x00002d19

00002dd0 <device_get_config_level>:
    2dd0:	e92d 43f0 	stmdb	sp!, {r4, r5, r6, r7, r8, r9, lr}
    2dd4:	4b11      	ldr	r3, [pc, #68]	; (2e1c <device_get_config_level+0x4c>)
    2dd6:	f8df 9048 	ldr.w	r9, [pc, #72]	; 2e20 <device_get_config_level+0x50>
    2dda:	f853 4021 	ldr.w	r4, [r3, r1, lsl #2]
    2dde:	3101      	adds	r1, #1
    2de0:	b087      	sub	sp, #28
    2de2:	f853 8021 	ldr.w	r8, [r3, r1, lsl #2]
    2de6:	4606      	mov	r6, r0
    2de8:	2700      	movs	r7, #0
    2dea:	45a0      	cmp	r8, r4
    2dec:	d803      	bhi.n	2df6 <device_get_config_level+0x26>
    2dee:	4638      	mov	r0, r7
    2df0:	b007      	add	sp, #28
    2df2:	e8bd 83f0 	ldmia.w	sp!, {r4, r5, r6, r7, r8, r9, pc}
    2df6:	4620      	mov	r0, r4
    2df8:	f008 fe03 	bl	ba02 <z_device_is_ready>
    2dfc:	4605      	mov	r5, r0
    2dfe:	b158      	cbz	r0, 2e18 <device_get_config_level+0x48>
    2e00:	2214      	movs	r2, #20
    2e02:	a901      	add	r1, sp, #4
    2e04:	4620      	mov	r0, r4
    2e06:	f7ff ff77 	bl	2cf8 <get_device_name>
    2e0a:	464a      	mov	r2, r9
    2e0c:	4603      	mov	r3, r0
    2e0e:	2108      	movs	r1, #8
    2e10:	4630      	mov	r0, r6
    2e12:	f007 fded 	bl	a9f0 <shell_fprintf>
    2e16:	462f      	mov	r7, r5
    2e18:	3418      	adds	r4, #24
    2e1a:	e7e6      	b.n	2dea <device_get_config_level+0x1a>
    2e1c:	0000cf9c 	.word	0x0000cf9c
    2e20:	0000d8b4 	.word	0x0000d8b4

00002e24 <cmd_device_levels>:
    2e24:	b510      	push	{r4, lr}
    2e26:	2108      	movs	r1, #8
    2e28:	4604      	mov	r4, r0
    2e2a:	4a25      	ldr	r2, [pc, #148]	; (2ec0 <cmd_device_levels+0x9c>)
    2e2c:	f007 fde0 	bl	a9f0 <shell_fprintf>
    2e30:	2100      	movs	r1, #0
    2e32:	4620      	mov	r0, r4
    2e34:	f7ff ffcc 	bl	2dd0 <device_get_config_level>
    2e38:	b920      	cbnz	r0, 2e44 <cmd_device_levels+0x20>
    2e3a:	4a22      	ldr	r2, [pc, #136]	; (2ec4 <cmd_device_levels+0xa0>)
    2e3c:	2108      	movs	r1, #8
    2e3e:	4620      	mov	r0, r4
    2e40:	f007 fdd6 	bl	a9f0 <shell_fprintf>
    2e44:	2108      	movs	r1, #8
    2e46:	4620      	mov	r0, r4
    2e48:	4a1f      	ldr	r2, [pc, #124]	; (2ec8 <cmd_device_levels+0xa4>)
    2e4a:	f007 fdd1 	bl	a9f0 <shell_fprintf>
    2e4e:	2101      	movs	r1, #1
    2e50:	4620      	mov	r0, r4
    2e52:	f7ff ffbd 	bl	2dd0 <device_get_config_level>
    2e56:	b920      	cbnz	r0, 2e62 <cmd_device_levels+0x3e>
    2e58:	4a1a      	ldr	r2, [pc, #104]	; (2ec4 <cmd_device_levels+0xa0>)
    2e5a:	2108      	movs	r1, #8
    2e5c:	4620      	mov	r0, r4
    2e5e:	f007 fdc7 	bl	a9f0 <shell_fprintf>
    2e62:	2108      	movs	r1, #8
    2e64:	4620      	mov	r0, r4
    2e66:	4a19      	ldr	r2, [pc, #100]	; (2ecc <cmd_device_levels+0xa8>)
    2e68:	f007 fdc2 	bl	a9f0 <shell_fprintf>
    2e6c:	2102      	movs	r1, #2
    2e6e:	4620      	mov	r0, r4
    2e70:	f7ff ffae 	bl	2dd0 <device_get_config_level>
    2e74:	b920      	cbnz	r0, 2e80 <cmd_device_levels+0x5c>
    2e76:	4a13      	ldr	r2, [pc, #76]	; (2ec4 <cmd_device_levels+0xa0>)
    2e78:	2108      	movs	r1, #8
    2e7a:	4620      	mov	r0, r4
    2e7c:	f007 fdb8 	bl	a9f0 <shell_fprintf>
    2e80:	2108      	movs	r1, #8
    2e82:	4620      	mov	r0, r4
    2e84:	4a12      	ldr	r2, [pc, #72]	; (2ed0 <cmd_device_levels+0xac>)
    2e86:	f007 fdb3 	bl	a9f0 <shell_fprintf>
    2e8a:	2103      	movs	r1, #3
    2e8c:	4620      	mov	r0, r4
    2e8e:	f7ff ff9f 	bl	2dd0 <device_get_config_level>
    2e92:	b920      	cbnz	r0, 2e9e <cmd_device_levels+0x7a>
    2e94:	4a0b      	ldr	r2, [pc, #44]	; (2ec4 <cmd_device_levels+0xa0>)
    2e96:	2108      	movs	r1, #8
    2e98:	4620      	mov	r0, r4
    2e9a:	f007 fda9 	bl	a9f0 <shell_fprintf>
    2e9e:	2108      	movs	r1, #8
    2ea0:	4620      	mov	r0, r4
    2ea2:	4a0c      	ldr	r2, [pc, #48]	; (2ed4 <cmd_device_levels+0xb0>)
    2ea4:	f007 fda4 	bl	a9f0 <shell_fprintf>
    2ea8:	2104      	movs	r1, #4
    2eaa:	4620      	mov	r0, r4
    2eac:	f7ff ff90 	bl	2dd0 <device_get_config_level>
    2eb0:	b920      	cbnz	r0, 2ebc <cmd_device_levels+0x98>
    2eb2:	4a04      	ldr	r2, [pc, #16]	; (2ec4 <cmd_device_levels+0xa0>)
    2eb4:	2108      	movs	r1, #8
    2eb6:	4620      	mov	r0, r4
    2eb8:	f007 fd9a 	bl	a9f0 <shell_fprintf>
    2ebc:	2000      	movs	r0, #0
    2ebe:	bd10      	pop	{r4, pc}
    2ec0:	0000d8ba 	.word	0x0000d8ba
    2ec4:	0000d8c2 	.word	0x0000d8c2
    2ec8:	0000d8ca 	.word	0x0000d8ca
    2ecc:	0000d8d9 	.word	0x0000d8d9
    2ed0:	0000d8e8 	.word	0x0000d8e8
    2ed4:	0000d8f6 	.word	0x0000d8f6

00002ed8 <cmd_devmem>:
    2ed8:	1e8b      	subs	r3, r1, #2
    2eda:	2b02      	cmp	r3, #2
    2edc:	e92d 41f0 	stmdb	sp!, {r4, r5, r6, r7, r8, lr}
    2ee0:	4607      	mov	r7, r0
    2ee2:	4688      	mov	r8, r1
    2ee4:	4614      	mov	r4, r2
    2ee6:	d837      	bhi.n	2f58 <cmd_devmem+0x80>
    2ee8:	6860      	ldr	r0, [r4, #4]
    2eea:	2210      	movs	r2, #16
    2eec:	2100      	movs	r1, #0
    2eee:	f006 f883 	bl	8ff8 <strtoul>
    2ef2:	f1b8 0f02 	cmp.w	r8, #2
    2ef6:	4606      	mov	r6, r0
    2ef8:	d107      	bne.n	2f0a <cmd_devmem+0x32>
    2efa:	4a26      	ldr	r2, [pc, #152]	; (2f94 <cmd_devmem+0xbc>)
    2efc:	2320      	movs	r3, #32
    2efe:	2108      	movs	r1, #8
    2f00:	4638      	mov	r0, r7
    2f02:	f007 fd75 	bl	a9f0 <shell_fprintf>
    2f06:	6833      	ldr	r3, [r6, #0]
    2f08:	e016      	b.n	2f38 <cmd_devmem+0x60>
    2f0a:	220a      	movs	r2, #10
    2f0c:	2100      	movs	r1, #0
    2f0e:	68a0      	ldr	r0, [r4, #8]
    2f10:	f006 f872 	bl	8ff8 <strtoul>
    2f14:	b2c5      	uxtb	r5, r0
    2f16:	4a1f      	ldr	r2, [pc, #124]	; (2f94 <cmd_devmem+0xbc>)
    2f18:	462b      	mov	r3, r5
    2f1a:	2108      	movs	r1, #8
    2f1c:	4638      	mov	r0, r7
    2f1e:	f007 fd67 	bl	a9f0 <shell_fprintf>
    2f22:	f1b8 0f04 	cmp.w	r8, #4
    2f26:	d01a      	beq.n	2f5e <cmd_devmem+0x86>
    2f28:	2d10      	cmp	r5, #16
    2f2a:	d00d      	beq.n	2f48 <cmd_devmem+0x70>
    2f2c:	2d20      	cmp	r5, #32
    2f2e:	d0ea      	beq.n	2f06 <cmd_devmem+0x2e>
    2f30:	2d08      	cmp	r5, #8
    2f32:	d10c      	bne.n	2f4e <cmd_devmem+0x76>
    2f34:	7833      	ldrb	r3, [r6, #0]
    2f36:	b2db      	uxtb	r3, r3
    2f38:	4a17      	ldr	r2, [pc, #92]	; (2f98 <cmd_devmem+0xc0>)
    2f3a:	2108      	movs	r1, #8
    2f3c:	4638      	mov	r0, r7
    2f3e:	f007 fd57 	bl	a9f0 <shell_fprintf>
    2f42:	2000      	movs	r0, #0
    2f44:	e8bd 81f0 	ldmia.w	sp!, {r4, r5, r6, r7, r8, pc}
    2f48:	8833      	ldrh	r3, [r6, #0]
    2f4a:	b29b      	uxth	r3, r3
    2f4c:	e7f4      	b.n	2f38 <cmd_devmem+0x60>
    2f4e:	4a13      	ldr	r2, [pc, #76]	; (2f9c <cmd_devmem+0xc4>)
    2f50:	2108      	movs	r1, #8
    2f52:	4638      	mov	r0, r7
    2f54:	f007 fd4c 	bl	a9f0 <shell_fprintf>
    2f58:	f06f 0015 	mvn.w	r0, #21
    2f5c:	e7f2      	b.n	2f44 <cmd_devmem+0x6c>
    2f5e:	68e0      	ldr	r0, [r4, #12]
    2f60:	2210      	movs	r2, #16
    2f62:	2100      	movs	r1, #0
    2f64:	f006 f848 	bl	8ff8 <strtoul>
    2f68:	4a0d      	ldr	r2, [pc, #52]	; (2fa0 <cmd_devmem+0xc8>)
    2f6a:	4603      	mov	r3, r0
    2f6c:	4604      	mov	r4, r0
    2f6e:	2108      	movs	r1, #8
    2f70:	4638      	mov	r0, r7
    2f72:	f007 fd3d 	bl	a9f0 <shell_fprintf>
    2f76:	2d10      	cmp	r5, #16
    2f78:	d006      	beq.n	2f88 <cmd_devmem+0xb0>
    2f7a:	2d20      	cmp	r5, #32
    2f7c:	d007      	beq.n	2f8e <cmd_devmem+0xb6>
    2f7e:	2d08      	cmp	r5, #8
    2f80:	d1e5      	bne.n	2f4e <cmd_devmem+0x76>
    2f82:	b2e4      	uxtb	r4, r4
    2f84:	7034      	strb	r4, [r6, #0]
    2f86:	e7dc      	b.n	2f42 <cmd_devmem+0x6a>
    2f88:	b2a4      	uxth	r4, r4
    2f8a:	8034      	strh	r4, [r6, #0]
    2f8c:	e7d9      	b.n	2f42 <cmd_devmem+0x6a>
    2f8e:	6034      	str	r4, [r6, #0]
    2f90:	e7d7      	b.n	2f42 <cmd_devmem+0x6a>
    2f92:	bf00      	nop
    2f94:	0000d95a 	.word	0x0000d95a
    2f98:	0000d985 	.word	0x0000d985
    2f9c:	0000d96f 	.word	0x0000d96f
    2fa0:	0000d996 	.word	0x0000d996

00002fa4 <cmd_dump>:
    2fa4:	e92d 4ff0 	stmdb	sp!, {r4, r5, r6, r7, r8, r9, sl, fp, lr}
    2fa8:	4b57      	ldr	r3, [pc, #348]	; (3108 <cmd_dump+0x164>)
    2faa:	f8df a160 	ldr.w	sl, [pc, #352]	; 310c <cmd_dump+0x168>
    2fae:	4691      	mov	r9, r2
    2fb0:	f04f 35ff 	mov.w	r5, #4294967295	; 0xffffffff
    2fb4:	2201      	movs	r2, #1
    2fb6:	b085      	sub	sp, #20
    2fb8:	4607      	mov	r7, r0
    2fba:	4688      	mov	r8, r1
    2fbc:	601a      	str	r2, [r3, #0]
    2fbe:	2620      	movs	r6, #32
    2fc0:	462c      	mov	r4, r5
    2fc2:	4649      	mov	r1, r9
    2fc4:	4652      	mov	r2, sl
    2fc6:	4640      	mov	r0, r8
    2fc8:	f7fe ff4c 	bl	1e64 <getopt>
    2fcc:	1c41      	adds	r1, r0, #1
    2fce:	d107      	bne.n	2fe0 <cmd_dump+0x3c>
    2fd0:	1c6a      	adds	r2, r5, #1
    2fd2:	d14f      	bne.n	3074 <cmd_dump+0xd0>
    2fd4:	4a4e      	ldr	r2, [pc, #312]	; (3110 <cmd_dump+0x16c>)
    2fd6:	2101      	movs	r1, #1
    2fd8:	4638      	mov	r0, r7
    2fda:	f007 fd09 	bl	a9f0 <shell_fprintf>
    2fde:	e01c      	b.n	301a <cmd_dump+0x76>
    2fe0:	2873      	cmp	r0, #115	; 0x73
    2fe2:	d01f      	beq.n	3024 <cmd_dump+0x80>
    2fe4:	2877      	cmp	r0, #119	; 0x77
    2fe6:	d031      	beq.n	304c <cmd_dump+0xa8>
    2fe8:	2861      	cmp	r0, #97	; 0x61
    2fea:	d116      	bne.n	301a <cmd_dump+0x76>
    2fec:	f8df b124 	ldr.w	fp, [pc, #292]	; 3114 <cmd_dump+0x170>
    2ff0:	2210      	movs	r2, #16
    2ff2:	f8db 0000 	ldr.w	r0, [fp]
    2ff6:	2100      	movs	r1, #0
    2ff8:	f005 fffe 	bl	8ff8 <strtoul>
    2ffc:	4605      	mov	r5, r0
    2ffe:	2800      	cmp	r0, #0
    3000:	d1df      	bne.n	2fc2 <cmd_dump+0x1e>
    3002:	f008 f98a 	bl	b31a <__errno>
    3006:	6803      	ldr	r3, [r0, #0]
    3008:	2b16      	cmp	r3, #22
    300a:	d1da      	bne.n	2fc2 <cmd_dump+0x1e>
    300c:	f8db 3000 	ldr.w	r3, [fp]
    3010:	4a41      	ldr	r2, [pc, #260]	; (3118 <cmd_dump+0x174>)
    3012:	2101      	movs	r1, #1
    3014:	4638      	mov	r0, r7
    3016:	f007 fceb 	bl	a9f0 <shell_fprintf>
    301a:	f06f 0015 	mvn.w	r0, #21
    301e:	b005      	add	sp, #20
    3020:	e8bd 8ff0 	ldmia.w	sp!, {r4, r5, r6, r7, r8, r9, sl, fp, pc}
    3024:	f8df b0ec 	ldr.w	fp, [pc, #236]	; 3114 <cmd_dump+0x170>
    3028:	2200      	movs	r2, #0
    302a:	f8db 0000 	ldr.w	r0, [fp]
    302e:	4611      	mov	r1, r2
    3030:	f005 ffe2 	bl	8ff8 <strtoul>
    3034:	4604      	mov	r4, r0
    3036:	2800      	cmp	r0, #0
    3038:	d1c3      	bne.n	2fc2 <cmd_dump+0x1e>
    303a:	f008 f96e 	bl	b31a <__errno>
    303e:	6803      	ldr	r3, [r0, #0]
    3040:	2b16      	cmp	r3, #22
    3042:	d1be      	bne.n	2fc2 <cmd_dump+0x1e>
    3044:	f8db 3000 	ldr.w	r3, [fp]
    3048:	4a34      	ldr	r2, [pc, #208]	; (311c <cmd_dump+0x178>)
    304a:	e7e2      	b.n	3012 <cmd_dump+0x6e>
    304c:	f8df b0c4 	ldr.w	fp, [pc, #196]	; 3114 <cmd_dump+0x170>
    3050:	2200      	movs	r2, #0
    3052:	f8db 0000 	ldr.w	r0, [fp]
    3056:	4611      	mov	r1, r2
    3058:	f005 ffce 	bl	8ff8 <strtoul>
    305c:	4606      	mov	r6, r0
    305e:	2800      	cmp	r0, #0
    3060:	d1af      	bne.n	2fc2 <cmd_dump+0x1e>
    3062:	f008 f95a 	bl	b31a <__errno>
    3066:	6803      	ldr	r3, [r0, #0]
    3068:	2b16      	cmp	r3, #22
    306a:	d1aa      	bne.n	2fc2 <cmd_dump+0x1e>
    306c:	f8db 3000 	ldr.w	r3, [fp]
    3070:	4a2b      	ldr	r2, [pc, #172]	; (3120 <cmd_dump+0x17c>)
    3072:	e7ce      	b.n	3012 <cmd_dump+0x6e>
    3074:	1c63      	adds	r3, r4, #1
    3076:	d101      	bne.n	307c <cmd_dump+0xd8>
    3078:	4a2a      	ldr	r2, [pc, #168]	; (3124 <cmd_dump+0x180>)
    307a:	e7ac      	b.n	2fd6 <cmd_dump+0x32>
    307c:	fa5f f886 	uxtb.w	r8, r6
    3080:	f3c6 06c4 	ubfx	r6, r6, #3, #5
    3084:	2c00      	cmp	r4, #0
    3086:	d03c      	beq.n	3102 <cmd_dump+0x15e>
    3088:	466b      	mov	r3, sp
    308a:	4629      	mov	r1, r5
    308c:	461a      	mov	r2, r3
    308e:	eba6 0c05 	sub.w	ip, r6, r5
    3092:	e00c      	b.n	30ae <cmd_dump+0x10a>
    3094:	f1b8 0f10 	cmp.w	r8, #16
    3098:	d01d      	beq.n	30d6 <cmd_dump+0x132>
    309a:	f1b8 0f20 	cmp.w	r8, #32
    309e:	d020      	beq.n	30e2 <cmd_dump+0x13e>
    30a0:	f1b8 0f08 	cmp.w	r8, #8
    30a4:	d12a      	bne.n	30fc <cmd_dump+0x158>
    30a6:	7808      	ldrb	r0, [r1, #0]
    30a8:	7018      	strb	r0, [r3, #0]
    30aa:	4431      	add	r1, r6
    30ac:	4433      	add	r3, r6
    30ae:	42a6      	cmp	r6, r4
    30b0:	d803      	bhi.n	30ba <cmd_dump+0x116>
    30b2:	eb0c 0001 	add.w	r0, ip, r1
    30b6:	2810      	cmp	r0, #16
    30b8:	d9ec      	bls.n	3094 <cmd_dump+0xf0>
    30ba:	2c10      	cmp	r4, #16
    30bc:	46a1      	mov	r9, r4
    30be:	bf28      	it	cs
    30c0:	f04f 0910 	movcs.w	r9, #16
    30c4:	4629      	mov	r1, r5
    30c6:	464b      	mov	r3, r9
    30c8:	4638      	mov	r0, r7
    30ca:	f001 f81b 	bl	4104 <shell_hexdump_line>
    30ce:	3510      	adds	r5, #16
    30d0:	eba4 0409 	sub.w	r4, r4, r9
    30d4:	e7d6      	b.n	3084 <cmd_dump+0xe0>
    30d6:	8808      	ldrh	r0, [r1, #0]
    30d8:	b280      	uxth	r0, r0
    30da:	7018      	strb	r0, [r3, #0]
    30dc:	0a00      	lsrs	r0, r0, #8
    30de:	7058      	strb	r0, [r3, #1]
    30e0:	e7e3      	b.n	30aa <cmd_dump+0x106>
    30e2:	6808      	ldr	r0, [r1, #0]
    30e4:	7018      	strb	r0, [r3, #0]
    30e6:	ea4f 2e10 	mov.w	lr, r0, lsr #8
    30ea:	f883 e001 	strb.w	lr, [r3, #1]
    30ee:	ea4f 4e10 	mov.w	lr, r0, lsr #16
    30f2:	0e00      	lsrs	r0, r0, #24
    30f4:	f883 e002 	strb.w	lr, [r3, #2]
    30f8:	70d8      	strb	r0, [r3, #3]
    30fa:	e7d6      	b.n	30aa <cmd_dump+0x106>
    30fc:	4a0a      	ldr	r2, [pc, #40]	; (3128 <cmd_dump+0x184>)
    30fe:	2108      	movs	r1, #8
    3100:	e76a      	b.n	2fd8 <cmd_dump+0x34>
    3102:	4620      	mov	r0, r4
    3104:	e78b      	b.n	301e <cmd_dump+0x7a>
    3106:	bf00      	nop
    3108:	2000001c 	.word	0x2000001c
    310c:	0000d9e4 	.word	0x0000d9e4
    3110:	0000d9eb 	.word	0x0000d9eb
    3114:	20000830 	.word	0x20000830
    3118:	0000d9aa 	.word	0x0000d9aa
    311c:	0000d9bd 	.word	0x0000d9bd
    3120:	0000d9d0 	.word	0x0000d9d0
    3124:	0000da08 	.word	0x0000da08
    3128:	0000d96f 	.word	0x0000d96f

0000312c <set_bypass.isra.0>:
    312c:	b570      	push	{r4, r5, r6, lr}
    312e:	4e10      	ldr	r6, [pc, #64]	; (3170 <set_bypass.isra.0+0x44>)
    3130:	4604      	mov	r4, r0
    3132:	7833      	ldrb	r3, [r6, #0]
    3134:	460d      	mov	r5, r1
    3136:	b181      	cbz	r1, 315a <set_bypass.isra.0+0x2e>
    3138:	b12b      	cbz	r3, 3146 <set_bypass.isra.0+0x1a>
    313a:	e8bd 4070 	ldmia.w	sp!, {r4, r5, r6, lr}
    313e:	4a0d      	ldr	r2, [pc, #52]	; (3174 <set_bypass.isra.0+0x48>)
    3140:	2101      	movs	r1, #1
    3142:	f007 bc55 	b.w	a9f0 <shell_fprintf>
    3146:	2301      	movs	r3, #1
    3148:	7033      	strb	r3, [r6, #0]
    314a:	4a0b      	ldr	r2, [pc, #44]	; (3178 <set_bypass.isra.0+0x4c>)
    314c:	2108      	movs	r1, #8
    314e:	4620      	mov	r0, r4
    3150:	f007 fc4e 	bl	a9f0 <shell_fprintf>
    3154:	2301      	movs	r3, #1
    3156:	7033      	strb	r3, [r6, #0]
    3158:	e004      	b.n	3164 <set_bypass.isra.0+0x38>
    315a:	f083 0301 	eor.w	r3, r3, #1
    315e:	7033      	strb	r3, [r6, #0]
    3160:	2b00      	cmp	r3, #0
    3162:	d1f2      	bne.n	314a <set_bypass.isra.0+0x1e>
    3164:	4629      	mov	r1, r5
    3166:	4620      	mov	r0, r4
    3168:	e8bd 4070 	ldmia.w	sp!, {r4, r5, r6, lr}
    316c:	f007 bc4d 	b.w	aa0a <shell_set_bypass>
    3170:	20001871 	.word	0x20001871
    3174:	0000da22 	.word	0x0000da22
    3178:	0000da5d 	.word	0x0000da5d

0000317c <bypass_cb>:
    317c:	b570      	push	{r4, r5, r6, lr}
    317e:	4604      	mov	r4, r0
    3180:	483c      	ldr	r0, [pc, #240]	; (3274 <bypass_cb+0xf8>)
    3182:	7803      	ldrb	r3, [r0, #0]
    3184:	2b18      	cmp	r3, #24
    3186:	d102      	bne.n	318e <bypass_cb+0x12>
    3188:	780b      	ldrb	r3, [r1, #0]
    318a:	2b11      	cmp	r3, #17
    318c:	d031      	beq.n	31f2 <bypass_cb+0x76>
    318e:	3a01      	subs	r2, #1
    3190:	460b      	mov	r3, r1
    3192:	188d      	adds	r5, r1, r2
    3194:	42ab      	cmp	r3, r5
    3196:	d125      	bne.n	31e4 <bypass_cb+0x68>
    3198:	5c8b      	ldrb	r3, [r1, r2]
    319a:	780a      	ldrb	r2, [r1, #0]
    319c:	7003      	strb	r3, [r0, #0]
    319e:	f1a2 0330 	sub.w	r3, r2, #48	; 0x30
    31a2:	2b09      	cmp	r3, #9
    31a4:	4c34      	ldr	r4, [pc, #208]	; (3278 <bypass_cb+0xfc>)
    31a6:	d904      	bls.n	31b2 <bypass_cb+0x36>
    31a8:	f022 0320 	bic.w	r3, r2, #32
    31ac:	3b41      	subs	r3, #65	; 0x41
    31ae:	2b05      	cmp	r3, #5
    31b0:	d804      	bhi.n	31bc <bypass_cb+0x40>
    31b2:	6823      	ldr	r3, [r4, #0]
    31b4:	4931      	ldr	r1, [pc, #196]	; (327c <bypass_cb+0x100>)
    31b6:	54ca      	strb	r2, [r1, r3]
    31b8:	3301      	adds	r3, #1
    31ba:	6023      	str	r3, [r4, #0]
    31bc:	6823      	ldr	r3, [r4, #0]
    31be:	2b02      	cmp	r3, #2
    31c0:	d134      	bne.n	322c <bypass_cb+0xb0>
    31c2:	2210      	movs	r2, #16
    31c4:	482d      	ldr	r0, [pc, #180]	; (327c <bypass_cb+0x100>)
    31c6:	2100      	movs	r1, #0
    31c8:	f005 ff16 	bl	8ff8 <strtoul>
    31cc:	4a2c      	ldr	r2, [pc, #176]	; (3280 <bypass_cb+0x104>)
    31ce:	6813      	ldr	r3, [r2, #0]
    31d0:	f803 0b01 	strb.w	r0, [r3], #1
    31d4:	6013      	str	r3, [r2, #0]
    31d6:	4a2b      	ldr	r2, [pc, #172]	; (3284 <bypass_cb+0x108>)
    31d8:	6813      	ldr	r3, [r2, #0]
    31da:	3301      	adds	r3, #1
    31dc:	6013      	str	r3, [r2, #0]
    31de:	2300      	movs	r3, #0
    31e0:	6023      	str	r3, [r4, #0]
    31e2:	e023      	b.n	322c <bypass_cb+0xb0>
    31e4:	f813 6b01 	ldrb.w	r6, [r3], #1
    31e8:	2e18      	cmp	r6, #24
    31ea:	d1d3      	bne.n	3194 <bypass_cb+0x18>
    31ec:	781e      	ldrb	r6, [r3, #0]
    31ee:	2e11      	cmp	r6, #17
    31f0:	d1d0      	bne.n	3194 <bypass_cb+0x18>
    31f2:	4d24      	ldr	r5, [pc, #144]	; (3284 <bypass_cb+0x108>)
    31f4:	4a24      	ldr	r2, [pc, #144]	; (3288 <bypass_cb+0x10c>)
    31f6:	682b      	ldr	r3, [r5, #0]
    31f8:	2108      	movs	r1, #8
    31fa:	4620      	mov	r0, r4
    31fc:	f007 fbf8 	bl	a9f0 <shell_fprintf>
    3200:	4620      	mov	r0, r4
    3202:	2100      	movs	r1, #0
    3204:	f7ff ff92 	bl	312c <set_bypass.isra.0>
    3208:	4b20      	ldr	r3, [pc, #128]	; (328c <bypass_cb+0x110>)
    320a:	7818      	ldrb	r0, [r3, #0]
    320c:	b970      	cbnz	r0, 322c <bypass_cb+0xb0>
    320e:	4a20      	ldr	r2, [pc, #128]	; (3290 <bypass_cb+0x114>)
    3210:	682b      	ldr	r3, [r5, #0]
    3212:	6811      	ldr	r1, [r2, #0]
    3214:	2b04      	cmp	r3, #4
    3216:	dc0a      	bgt.n	322e <bypass_cb+0xb2>
    3218:	b108      	cbz	r0, 321e <bypass_cb+0xa2>
    321a:	6011      	str	r1, [r2, #0]
    321c:	602b      	str	r3, [r5, #0]
    321e:	f013 0103 	ands.w	r1, r3, #3
    3222:	d10b      	bne.n	323c <bypass_cb+0xc0>
    3224:	6812      	ldr	r2, [r2, #0]
    3226:	6813      	ldr	r3, [r2, #0]
    3228:	ba1b      	rev	r3, r3
    322a:	6013      	str	r3, [r2, #0]
    322c:	bd70      	pop	{r4, r5, r6, pc}
    322e:	6808      	ldr	r0, [r1, #0]
    3230:	ba00      	rev	r0, r0
    3232:	f841 0b04 	str.w	r0, [r1], #4
    3236:	3b04      	subs	r3, #4
    3238:	2001      	movs	r0, #1
    323a:	e7eb      	b.n	3214 <bypass_cb+0x98>
    323c:	425b      	negs	r3, r3
    323e:	f003 0303 	and.w	r3, r3, #3
    3242:	bf58      	it	pl
    3244:	4259      	negpl	r1, r3
    3246:	2902      	cmp	r1, #2
    3248:	d104      	bne.n	3254 <bypass_cb+0xd8>
    324a:	6812      	ldr	r2, [r2, #0]
    324c:	8813      	ldrh	r3, [r2, #0]
    324e:	ba5b      	rev16	r3, r3
    3250:	b29b      	uxth	r3, r3
    3252:	e7ea      	b.n	322a <bypass_cb+0xae>
    3254:	2903      	cmp	r1, #3
    3256:	d1e9      	bne.n	322c <bypass_cb+0xb0>
    3258:	6810      	ldr	r0, [r2, #0]
    325a:	6802      	ldr	r2, [r0, #0]
    325c:	0411      	lsls	r1, r2, #16
    325e:	f3c2 4307 	ubfx	r3, r2, #16, #8
    3262:	f401 017f 	and.w	r1, r1, #16711680	; 0xff0000
    3266:	430b      	orrs	r3, r1
    3268:	f402 427f 	and.w	r2, r2, #65280	; 0xff00
    326c:	4313      	orrs	r3, r2
    326e:	6003      	str	r3, [r0, #0]
    3270:	e7dc      	b.n	322c <bypass_cb+0xb0>
    3272:	bf00      	nop
    3274:	20001872 	.word	0x20001872
    3278:	2000083c 	.word	0x2000083c
    327c:	20001874 	.word	0x20001874
    3280:	20000848 	.word	0x20000848
    3284:	20000840 	.word	0x20000840
    3288:	0000da87 	.word	0x0000da87
    328c:	20001873 	.word	0x20001873
    3290:	20000844 	.word	0x20000844

00003294 <cmd_load>:
    3294:	e92d 4ff8 	stmdb	sp!, {r3, r4, r5, r6, r7, r8, r9, sl, fp, lr}
    3298:	460d      	mov	r5, r1
    329a:	492b      	ldr	r1, [pc, #172]	; (3348 <cmd_load+0xb4>)
    329c:	f8df 80ac 	ldr.w	r8, [pc, #172]	; 334c <cmd_load+0xb8>
    32a0:	f8df 90ac 	ldr.w	r9, [pc, #172]	; 3350 <cmd_load+0xbc>
    32a4:	f8df b0ac 	ldr.w	fp, [pc, #172]	; 3354 <cmd_load+0xc0>
    32a8:	2300      	movs	r3, #0
    32aa:	600b      	str	r3, [r1, #0]
    32ac:	492a      	ldr	r1, [pc, #168]	; (3358 <cmd_load+0xc4>)
    32ae:	f888 3000 	strb.w	r3, [r8]
    32b2:	4606      	mov	r6, r0
    32b4:	600b      	str	r3, [r1, #0]
    32b6:	4614      	mov	r4, r2
    32b8:	2d01      	cmp	r5, #1
    32ba:	4627      	mov	r7, r4
    32bc:	f854 af04 	ldr.w	sl, [r4, #4]!
    32c0:	d91e      	bls.n	3300 <cmd_load+0x6c>
    32c2:	2202      	movs	r2, #2
    32c4:	4649      	mov	r1, r9
    32c6:	4650      	mov	r0, sl
    32c8:	f008 ffa0 	bl	c20c <strncmp>
    32cc:	b980      	cbnz	r0, 32f0 <cmd_load+0x5c>
    32ce:	6822      	ldr	r2, [r4, #0]
    32d0:	7892      	ldrb	r2, [r2, #2]
    32d2:	3a00      	subs	r2, #0
    32d4:	bf18      	it	ne
    32d6:	2201      	movne	r2, #1
    32d8:	4492      	add	sl, r2
    32da:	4920      	ldr	r1, [pc, #128]	; (335c <cmd_load+0xc8>)
    32dc:	2202      	movs	r2, #2
    32de:	4650      	mov	r0, sl
    32e0:	f008 ff94 	bl	c20c <strncmp>
    32e4:	b930      	cbnz	r0, 32f4 <cmd_load+0x60>
    32e6:	2301      	movs	r3, #1
    32e8:	f888 3000 	strb.w	r3, [r8]
    32ec:	3d01      	subs	r5, #1
    32ee:	e7e3      	b.n	32b8 <cmd_load+0x24>
    32f0:	2200      	movs	r2, #0
    32f2:	e7f1      	b.n	32d8 <cmd_load+0x44>
    32f4:	4649      	mov	r1, r9
    32f6:	4650      	mov	r0, sl
    32f8:	f7fe fbd6 	bl	1aa8 <strcmp>
    32fc:	b9a8      	cbnz	r0, 332a <cmd_load+0x96>
    32fe:	3704      	adds	r7, #4
    3300:	2200      	movs	r2, #0
    3302:	4611      	mov	r1, r2
    3304:	6878      	ldr	r0, [r7, #4]
    3306:	f005 fdfb 	bl	8f00 <strtol>
    330a:	4b15      	ldr	r3, [pc, #84]	; (3360 <cmd_load+0xcc>)
    330c:	2200      	movs	r2, #0
    330e:	4611      	mov	r1, r2
    3310:	6018      	str	r0, [r3, #0]
    3312:	6878      	ldr	r0, [r7, #4]
    3314:	f005 fdf4 	bl	8f00 <strtol>
    3318:	4b12      	ldr	r3, [pc, #72]	; (3364 <cmd_load+0xd0>)
    331a:	4913      	ldr	r1, [pc, #76]	; (3368 <cmd_load+0xd4>)
    331c:	6018      	str	r0, [r3, #0]
    331e:	4630      	mov	r0, r6
    3320:	f7ff ff04 	bl	312c <set_bypass.isra.0>
    3324:	2000      	movs	r0, #0
    3326:	e8bd 8ff8 	ldmia.w	sp!, {r3, r4, r5, r6, r7, r8, r9, sl, fp, pc}
    332a:	f89a 2000 	ldrb.w	r2, [sl]
    332e:	2a2d      	cmp	r2, #45	; 0x2d
    3330:	d1e6      	bne.n	3300 <cmd_load+0x6c>
    3332:	f89a 2001 	ldrb.w	r2, [sl, #1]
    3336:	2a00      	cmp	r2, #0
    3338:	d0e2      	beq.n	3300 <cmd_load+0x6c>
    333a:	4653      	mov	r3, sl
    333c:	465a      	mov	r2, fp
    333e:	2108      	movs	r1, #8
    3340:	4630      	mov	r0, r6
    3342:	f007 fb55 	bl	a9f0 <shell_fprintf>
    3346:	e7d1      	b.n	32ec <cmd_load+0x58>
    3348:	2000083c 	.word	0x2000083c
    334c:	20001873 	.word	0x20001873
    3350:	0000daa1 	.word	0x0000daa1
    3354:	0000daa7 	.word	0x0000daa7
    3358:	20000840 	.word	0x20000840
    335c:	0000daa4 	.word	0x0000daa4
    3360:	20000848 	.word	0x20000848
    3364:	20000844 	.word	0x20000844
    3368:	0000317d 	.word	0x0000317d

0000336c <enable_shell_uart>:
    336c:	b513      	push	{r0, r1, r4, lr}
    336e:	4809      	ldr	r0, [pc, #36]	; (3394 <enable_shell_uart+0x28>)
    3370:	f008 fb47 	bl	ba02 <z_device_is_ready>
    3374:	b158      	cbz	r0, 338e <enable_shell_uart+0x22>
    3376:	4a08      	ldr	r2, [pc, #32]	; (3398 <enable_shell_uart+0x2c>)
    3378:	4906      	ldr	r1, [pc, #24]	; (3394 <enable_shell_uart+0x28>)
    337a:	6812      	ldr	r2, [r2, #0]
    337c:	4807      	ldr	r0, [pc, #28]	; (339c <enable_shell_uart+0x30>)
    337e:	2400      	movs	r4, #0
    3380:	9400      	str	r4, [sp, #0]
    3382:	2301      	movs	r3, #1
    3384:	f000 fda4 	bl	3ed0 <shell_init>
    3388:	4620      	mov	r0, r4
    338a:	b002      	add	sp, #8
    338c:	bd10      	pop	{r4, pc}
    338e:	f06f 0012 	mvn.w	r0, #18
    3392:	e7fa      	b.n	338a <enable_shell_uart+0x1e>
    3394:	0000c8b8 	.word	0x0000c8b8
    3398:	0000d008 	.word	0x0000d008
    339c:	0000cb04 	.word	0x0000cb04

000033a0 <init>:
    33a0:	b510      	push	{r4, lr}
    33a2:	4614      	mov	r4, r2
    33a4:	6842      	ldr	r2, [r0, #4]
    33a6:	6810      	ldr	r0, [r2, #0]
    33a8:	6001      	str	r1, [r0, #0]
    33aa:	6811      	ldr	r1, [r2, #0]
    33ac:	604c      	str	r4, [r1, #4]
    33ae:	6811      	ldr	r1, [r2, #0]
    33b0:	608b      	str	r3, [r1, #8]
    33b2:	6813      	ldr	r3, [r2, #0]
    33b4:	6891      	ldr	r1, [r2, #8]
    33b6:	681c      	ldr	r4, [r3, #0]
    33b8:	2300      	movs	r3, #0
    33ba:	e9c1 3302 	strd	r3, r3, [r1, #8]
    33be:	e9c1 3305 	strd	r3, r3, [r1, #20]
    33c2:	604b      	str	r3, [r1, #4]
    33c4:	610b      	str	r3, [r1, #16]
    33c6:	68d1      	ldr	r1, [r2, #12]
    33c8:	e9c1 3302 	strd	r3, r3, [r1, #8]
    33cc:	e9c1 3305 	strd	r3, r3, [r1, #20]
    33d0:	604b      	str	r3, [r1, #4]
    33d2:	610b      	str	r3, [r1, #16]
    33d4:	6811      	ldr	r1, [r2, #0]
    33d6:	60cb      	str	r3, [r1, #12]
    33d8:	68a3      	ldr	r3, [r4, #8]
    33da:	b123      	cbz	r3, 33e6 <init+0x46>
    33dc:	6c9b      	ldr	r3, [r3, #72]	; 0x48
    33de:	b113      	cbz	r3, 33e6 <init+0x46>
    33e0:	4904      	ldr	r1, [pc, #16]	; (33f4 <init+0x54>)
    33e2:	4620      	mov	r0, r4
    33e4:	4798      	blx	r3
    33e6:	68a3      	ldr	r3, [r4, #8]
    33e8:	6a9b      	ldr	r3, [r3, #40]	; 0x28
    33ea:	b10b      	cbz	r3, 33f0 <init+0x50>
    33ec:	4620      	mov	r0, r4
    33ee:	4798      	blx	r3
    33f0:	2000      	movs	r0, #0
    33f2:	bd10      	pop	{r4, pc}
    33f4:	0000a6ef 	.word	0x0000a6ef

000033f8 <enable_shell_dummy>:
    33f8:	b507      	push	{r0, r1, r2, lr}
    33fa:	4a06      	ldr	r2, [pc, #24]	; (3414 <enable_shell_dummy+0x1c>)
    33fc:	4806      	ldr	r0, [pc, #24]	; (3418 <enable_shell_dummy+0x20>)
    33fe:	6812      	ldr	r2, [r2, #0]
    3400:	2303      	movs	r3, #3
    3402:	9300      	str	r3, [sp, #0]
    3404:	2100      	movs	r1, #0
    3406:	2301      	movs	r3, #1
    3408:	f000 fd62 	bl	3ed0 <shell_init>
    340c:	2000      	movs	r0, #0
    340e:	b003      	add	sp, #12
    3410:	f85d fb04 	ldr.w	pc, [sp], #4
    3414:	0000d048 	.word	0x0000d048
    3418:	0000cad8 	.word	0x0000cad8

0000341c <shell_internal_help_print>:
    341c:	b510      	push	{r4, lr}
    341e:	6881      	ldr	r1, [r0, #8]
    3420:	4604      	mov	r4, r0
    3422:	3108      	adds	r1, #8
    3424:	f001 fb0e 	bl	4a44 <z_shell_help_cmd_print>
    3428:	68a1      	ldr	r1, [r4, #8]
    342a:	4a03      	ldr	r2, [pc, #12]	; (3438 <shell_internal_help_print+0x1c>)
    342c:	4620      	mov	r0, r4
    342e:	3108      	adds	r1, #8
    3430:	e8bd 4010 	ldmia.w	sp!, {r4, lr}
    3434:	f001 ba96 	b.w	4964 <z_shell_help_subcmd_print>
    3438:	0000dc28 	.word	0x0000dc28

0000343c <z_cursor_next_line_move.isra.0>:
    343c:	4901      	ldr	r1, [pc, #4]	; (3444 <z_cursor_next_line_move.isra.0+0x8>)
    343e:	f007 ba41 	b.w	a8c4 <z_shell_raw_fprintf>
    3442:	bf00      	nop
    3444:	0000d6da 	.word	0x0000d6da

00003448 <history_handle>:
    3448:	b537      	push	{r0, r1, r2, r4, r5, lr}
    344a:	4604      	mov	r4, r0
    344c:	6880      	ldr	r0, [r0, #8]
    344e:	f8d0 3264 	ldr.w	r3, [r0, #612]	; 0x264
    3452:	075a      	lsls	r2, r3, #29
    3454:	460d      	mov	r5, r1
    3456:	d505      	bpl.n	3464 <history_handle+0x1c>
    3458:	2100      	movs	r1, #0
    345a:	f007 fa71 	bl	a940 <z_flag_history_exit_set.isra.0>
    345e:	68e0      	ldr	r0, [r4, #12]
    3460:	f007 fe26 	bl	b0b0 <z_shell_history_mode_exit>
    3464:	68e3      	ldr	r3, [r4, #12]
    3466:	68db      	ldr	r3, [r3, #12]
    3468:	b973      	cbnz	r3, 3488 <history_handle+0x40>
    346a:	2d00      	cmp	r5, #0
    346c:	d039      	beq.n	34e2 <history_handle+0x9a>
    346e:	68a0      	ldr	r0, [r4, #8]
    3470:	3042      	adds	r0, #66	; 0x42
    3472:	f007 fa21 	bl	a8b8 <z_shell_strlen>
    3476:	68a3      	ldr	r3, [r4, #8]
    3478:	2800      	cmp	r0, #0
    347a:	d034      	beq.n	34e6 <history_handle+0x9e>
    347c:	f103 0142 	add.w	r1, r3, #66	; 0x42
    3480:	f503 70a1 	add.w	r0, r3, #322	; 0x142
    3484:	f008 feba 	bl	c1fc <strcpy>
    3488:	68a2      	ldr	r2, [r4, #8]
    348a:	68e0      	ldr	r0, [r4, #12]
    348c:	f10d 0306 	add.w	r3, sp, #6
    3490:	3242      	adds	r2, #66	; 0x42
    3492:	4629      	mov	r1, r5
    3494:	f007 fe0f 	bl	b0b6 <z_shell_history_get>
    3498:	b958      	cbnz	r0, 34b2 <history_handle+0x6a>
    349a:	68a0      	ldr	r0, [r4, #8]
    349c:	f500 71a1 	add.w	r1, r0, #322	; 0x142
    34a0:	3042      	adds	r0, #66	; 0x42
    34a2:	f008 feab 	bl	c1fc <strcpy>
    34a6:	68a0      	ldr	r0, [r4, #8]
    34a8:	3042      	adds	r0, #66	; 0x42
    34aa:	f007 fa05 	bl	a8b8 <z_shell_strlen>
    34ae:	f8ad 0006 	strh.w	r0, [sp, #6]
    34b2:	4620      	mov	r0, r4
    34b4:	f007 fc4a 	bl	ad4c <z_shell_op_cursor_home_move>
    34b8:	68a3      	ldr	r3, [r4, #8]
    34ba:	f8d3 3260 	ldr.w	r3, [r3, #608]	; 0x260
    34be:	069b      	lsls	r3, r3, #26
    34c0:	d503      	bpl.n	34ca <history_handle+0x82>
    34c2:	490a      	ldr	r1, [pc, #40]	; (34ec <history_handle+0xa4>)
    34c4:	6960      	ldr	r0, [r4, #20]
    34c6:	f007 f9fd 	bl	a8c4 <z_shell_raw_fprintf>
    34ca:	4620      	mov	r0, r4
    34cc:	f001 f8a4 	bl	4618 <z_shell_print_cmd>
    34d0:	68a2      	ldr	r2, [r4, #8]
    34d2:	f8bd 3006 	ldrh.w	r3, [sp, #6]
    34d6:	87d3      	strh	r3, [r2, #62]	; 0x3e
    34d8:	68a2      	ldr	r2, [r4, #8]
    34da:	4620      	mov	r0, r4
    34dc:	8793      	strh	r3, [r2, #60]	; 0x3c
    34de:	f007 fbde 	bl	ac9e <z_shell_op_cond_next_line>
    34e2:	b003      	add	sp, #12
    34e4:	bd30      	pop	{r4, r5, pc}
    34e6:	f883 0142 	strb.w	r0, [r3, #322]	; 0x142
    34ea:	e7cd      	b.n	3488 <history_handle+0x40>
    34ec:	0000cdfd 	.word	0x0000cdfd

000034f0 <state_set.constprop.0>:
    34f0:	b510      	push	{r4, lr}
    34f2:	6883      	ldr	r3, [r0, #8]
    34f4:	2202      	movs	r2, #2
    34f6:	711a      	strb	r2, [r3, #4]
    34f8:	6882      	ldr	r2, [r0, #8]
    34fa:	6b93      	ldr	r3, [r2, #56]	; 0x38
    34fc:	4604      	mov	r4, r0
    34fe:	b9db      	cbnz	r3, 3538 <state_set.constprop.0+0x48>
    3500:	f882 3042 	strb.w	r3, [r2, #66]	; 0x42
    3504:	6882      	ldr	r2, [r0, #8]
    3506:	87d3      	strh	r3, [r2, #62]	; 0x3e
    3508:	6882      	ldr	r2, [r0, #8]
    350a:	8793      	strh	r3, [r2, #60]	; 0x3c
    350c:	6883      	ldr	r3, [r0, #8]
    350e:	f8d3 3264 	ldr.w	r3, [r3, #612]	; 0x264
    3512:	04db      	lsls	r3, r3, #19
    3514:	d50b      	bpl.n	352e <state_set.constprop.0+0x3e>
    3516:	2103      	movs	r1, #3
    3518:	4b08      	ldr	r3, [pc, #32]	; (353c <state_set.constprop.0+0x4c>)
    351a:	4a09      	ldr	r2, [pc, #36]	; (3540 <state_set.constprop.0+0x50>)
    351c:	f007 fcc4 	bl	aea8 <z_shell_fprintf>
    3520:	68a0      	ldr	r0, [r4, #8]
    3522:	f46f 5180 	mvn.w	r1, #4096	; 0x1000
    3526:	f500 7019 	add.w	r0, r0, #612	; 0x264
    352a:	f007 f9a0 	bl	a86e <atomic_and>
    352e:	4620      	mov	r0, r4
    3530:	e8bd 4010 	ldmia.w	sp!, {r4, lr}
    3534:	f001 b986 	b.w	4844 <z_shell_print_prompt_and_cmd>
    3538:	bd10      	pop	{r4, pc}
    353a:	bf00      	nop
    353c:	0000dc36 	.word	0x0000dc36
    3540:	0000d8aa 	.word	0x0000d8aa

00003544 <execute>:
    3544:	e92d 4ff0 	stmdb	sp!, {r4, r5, r6, r7, r8, r9, sl, fp, lr}
    3548:	b0a7      	sub	sp, #156	; 0x9c
    354a:	4604      	mov	r4, r0
    354c:	2254      	movs	r2, #84	; 0x54
    354e:	2100      	movs	r1, #0
    3550:	a811      	add	r0, sp, #68	; 0x44
    3552:	f008 fe0b 	bl	c16c <memset>
    3556:	2300      	movs	r3, #0
    3558:	e9cd 3305 	strd	r3, r3, [sp, #20]
    355c:	68a3      	ldr	r3, [r4, #8]
    355e:	4620      	mov	r0, r4
    3560:	3342      	adds	r3, #66	; 0x42
    3562:	9302      	str	r3, [sp, #8]
    3564:	f007 fbf8 	bl	ad58 <z_shell_op_cursor_end_move>
    3568:	4620      	mov	r0, r4
    356a:	f007 fb7f 	bl	ac6c <z_shell_cursor_in_empty_line>
    356e:	b910      	cbnz	r0, 3576 <execute+0x32>
    3570:	6960      	ldr	r0, [r4, #20]
    3572:	f7ff ff63 	bl	343c <z_cursor_next_line_move.isra.0>
    3576:	68a0      	ldr	r0, [r4, #8]
    3578:	2214      	movs	r2, #20
    357a:	2100      	movs	r1, #0
    357c:	3008      	adds	r0, #8
    357e:	f008 fdf5 	bl	c16c <memset>
    3582:	4620      	mov	r0, r4
    3584:	f000 ff96 	bl	44b4 <z_shell_cmd_trim>
    3588:	68a1      	ldr	r1, [r4, #8]
    358a:	68e0      	ldr	r0, [r4, #12]
    358c:	8f8a      	ldrh	r2, [r1, #60]	; 0x3c
    358e:	3142      	adds	r1, #66	; 0x42
    3590:	2600      	movs	r6, #0
    3592:	f007 fdc7 	bl	b124 <z_shell_history_put>
    3596:	4620      	mov	r0, r4
    3598:	f007 fe46 	bl	b228 <z_shell_wildcard_prepare>
    359c:	f04f 37ff 	mov.w	r7, #4294967295	; 0xffffffff
    35a0:	46b2      	mov	sl, r6
    35a2:	9603      	str	r6, [sp, #12]
    35a4:	f10d 0844 	add.w	r8, sp, #68	; 0x44
    35a8:	46b3      	mov	fp, r6
    35aa:	4635      	mov	r5, r6
    35ac:	46b1      	mov	r9, r6
    35ae:	e9dd 3205 	ldrd	r3, r2, [sp, #20]
    35b2:	2a01      	cmp	r2, #1
    35b4:	d06d      	beq.n	3692 <execute+0x14e>
    35b6:	2b13      	cmp	r3, #19
    35b8:	d86e      	bhi.n	3698 <execute+0x154>
    35ba:	bb5f      	cbnz	r7, 3614 <execute+0xd0>
    35bc:	f1bb 0f00 	cmp.w	fp, #0
    35c0:	d00a      	beq.n	35d8 <execute+0x94>
    35c2:	4620      	mov	r0, r4
    35c4:	f007 fe51 	bl	b26a <z_shell_wildcard_finalize>
    35c8:	68a2      	ldr	r2, [r4, #8]
    35ca:	2314      	movs	r3, #20
    35cc:	3242      	adds	r2, #66	; 0x42
    35ce:	a911      	add	r1, sp, #68	; 0x44
    35d0:	eb0d 0003 	add.w	r0, sp, r3
    35d4:	f000 fe22 	bl	421c <z_shell_make_argv>
    35d8:	f1b9 0f00 	cmp.w	r9, #0
    35dc:	d00c      	beq.n	35f8 <execute+0xb4>
    35de:	f899 3011 	ldrb.w	r3, [r9, #17]
    35e2:	2bfe      	cmp	r3, #254	; 0xfe
    35e4:	d108      	bne.n	35f8 <execute+0xb4>
    35e6:	9b05      	ldr	r3, [sp, #20]
    35e8:	aa26      	add	r2, sp, #152	; 0x98
    35ea:	eb02 0283 	add.w	r2, r2, r3, lsl #2
    35ee:	f852 2c54 	ldr.w	r2, [r2, #-84]
    35f2:	b10a      	cbz	r2, 35f8 <execute+0xb4>
    35f4:	3301      	adds	r3, #1
    35f6:	9305      	str	r3, [sp, #20]
    35f8:	68a0      	ldr	r0, [r4, #8]
    35fa:	9d05      	ldr	r5, [sp, #20]
    35fc:	6943      	ldr	r3, [r0, #20]
    35fe:	2b00      	cmp	r3, #0
    3600:	f040 80b6 	bne.w	3770 <execute+0x22c>
    3604:	b1ce      	cbz	r6, 363a <execute+0xf6>
    3606:	68c3      	ldr	r3, [r0, #12]
    3608:	429e      	cmp	r6, r3
    360a:	d02d      	beq.n	3668 <execute+0x124>
    360c:	960d      	str	r6, [sp, #52]	; 0x34
    360e:	f100 0508 	add.w	r5, r0, #8
    3612:	e024      	b.n	365e <execute+0x11a>
    3614:	9a02      	ldr	r2, [sp, #8]
    3616:	2302      	movs	r3, #2
    3618:	4641      	mov	r1, r8
    361a:	a806      	add	r0, sp, #24
    361c:	f000 fdfe 	bl	421c <z_shell_make_argv>
    3620:	9906      	ldr	r1, [sp, #24]
    3622:	f8d8 2004 	ldr.w	r2, [r8, #4]
    3626:	9202      	str	r2, [sp, #8]
    3628:	4603      	mov	r3, r0
    362a:	b131      	cbz	r1, 363a <execute+0xf6>
    362c:	2901      	cmp	r1, #1
    362e:	d10a      	bne.n	3646 <execute+0x102>
    3630:	b148      	cbz	r0, 3646 <execute+0x102>
    3632:	4a6f      	ldr	r2, [pc, #444]	; (37f0 <execute+0x2ac>)
    3634:	4620      	mov	r0, r4
    3636:	f007 fc37 	bl	aea8 <z_shell_fprintf>
    363a:	f06f 0507 	mvn.w	r5, #7
    363e:	4628      	mov	r0, r5
    3640:	b027      	add	sp, #156	; 0x9c
    3642:	e8bd 8ff0 	ldmia.w	sp!, {r4, r5, r6, r7, r8, r9, sl, fp, pc}
    3646:	9b05      	ldr	r3, [sp, #20]
    3648:	2b00      	cmp	r3, #0
    364a:	d034      	beq.n	36b6 <execute+0x172>
    364c:	f8d8 0000 	ldr.w	r0, [r8]
    3650:	f001 fa1c 	bl	4a8c <z_shell_help_request>
    3654:	b198      	cbz	r0, 367e <execute+0x13a>
    3656:	b166      	cbz	r6, 3672 <execute+0x12e>
    3658:	68a5      	ldr	r5, [r4, #8]
    365a:	960d      	str	r6, [sp, #52]	; 0x34
    365c:	3508      	adds	r5, #8
    365e:	ae0c      	add	r6, sp, #48	; 0x30
    3660:	ce0f      	ldmia	r6!, {r0, r1, r2, r3}
    3662:	c50f      	stmia	r5!, {r0, r1, r2, r3}
    3664:	6833      	ldr	r3, [r6, #0]
    3666:	602b      	str	r3, [r5, #0]
    3668:	4620      	mov	r0, r4
    366a:	f7ff fed7 	bl	341c <shell_internal_help_print>
    366e:	2501      	movs	r5, #1
    3670:	e7e5      	b.n	363e <execute+0xfa>
    3672:	4a60      	ldr	r2, [pc, #384]	; (37f4 <execute+0x2b0>)
    3674:	2101      	movs	r1, #1
    3676:	4620      	mov	r0, r4
    3678:	f007 fc16 	bl	aea8 <z_shell_fprintf>
    367c:	e7dd      	b.n	363a <execute+0xf6>
    367e:	9b05      	ldr	r3, [sp, #20]
    3680:	b1cb      	cbz	r3, 36b6 <execute+0x172>
    3682:	f8d8 2000 	ldr.w	r2, [r8]
    3686:	4629      	mov	r1, r5
    3688:	4620      	mov	r0, r4
    368a:	f001 fb99 	bl	4dc0 <z_shell_wildcard_process>
    368e:	2802      	cmp	r0, #2
    3690:	d109      	bne.n	36a6 <execute+0x162>
    3692:	9b05      	ldr	r3, [sp, #20]
    3694:	2b13      	cmp	r3, #19
    3696:	d991      	bls.n	35bc <execute+0x78>
    3698:	9b06      	ldr	r3, [sp, #24]
    369a:	2b02      	cmp	r3, #2
    369c:	d18e      	bne.n	35bc <execute+0x78>
    369e:	4b56      	ldr	r3, [pc, #344]	; (37f8 <execute+0x2b4>)
    36a0:	4a56      	ldr	r2, [pc, #344]	; (37fc <execute+0x2b8>)
    36a2:	2101      	movs	r1, #1
    36a4:	e7c6      	b.n	3634 <execute+0xf0>
    36a6:	2803      	cmp	r0, #3
    36a8:	d005      	beq.n	36b6 <execute+0x172>
    36aa:	9b05      	ldr	r3, [sp, #20]
    36ac:	3301      	adds	r3, #1
    36ae:	9305      	str	r3, [sp, #20]
    36b0:	f04f 0b01 	mov.w	fp, #1
    36b4:	e77b      	b.n	35ae <execute+0x6a>
    36b6:	9b03      	ldr	r3, [sp, #12]
    36b8:	b933      	cbnz	r3, 36c8 <execute+0x184>
    36ba:	f8d8 1000 	ldr.w	r1, [r8]
    36be:	aa07      	add	r2, sp, #28
    36c0:	4648      	mov	r0, r9
    36c2:	f007 fa2c 	bl	ab1e <z_shell_find_cmd>
    36c6:	4605      	mov	r5, r0
    36c8:	f108 0804 	add.w	r8, r8, #4
    36cc:	3f01      	subs	r7, #1
    36ce:	b39d      	cbz	r5, 3738 <execute+0x1f4>
    36d0:	68eb      	ldr	r3, [r5, #12]
    36d2:	f1bb 0f00 	cmp.w	fp, #0
    36d6:	d008      	beq.n	36ea <execute+0x1a6>
    36d8:	b1f3      	cbz	r3, 3718 <execute+0x1d4>
    36da:	4620      	mov	r0, r4
    36dc:	f007 fb3c 	bl	ad58 <z_shell_op_cursor_end_move>
    36e0:	4620      	mov	r0, r4
    36e2:	f007 fadc 	bl	ac9e <z_shell_op_cond_next_line>
    36e6:	4a46      	ldr	r2, [pc, #280]	; (3800 <execute+0x2bc>)
    36e8:	e7c4      	b.n	3674 <execute+0x130>
    36ea:	b1ab      	cbz	r3, 3718 <execute+0x1d4>
    36ec:	68a3      	ldr	r3, [r4, #8]
    36ee:	f8dd a014 	ldr.w	sl, [sp, #20]
    36f2:	46ae      	mov	lr, r5
    36f4:	f103 0c08 	add.w	ip, r3, #8
    36f8:	e8be 000f 	ldmia.w	lr!, {r0, r1, r2, r3}
    36fc:	e8ac 000f 	stmia.w	ip!, {r0, r1, r2, r3}
    3700:	f8de 3000 	ldr.w	r3, [lr]
    3704:	f8cc 3000 	str.w	r3, [ip]
    3708:	68ab      	ldr	r3, [r5, #8]
    370a:	b92b      	cbnz	r3, 3718 <execute+0x1d4>
    370c:	7c6b      	ldrb	r3, [r5, #17]
    370e:	2bfe      	cmp	r3, #254	; 0xfe
    3710:	bf04      	itt	eq
    3712:	7c2f      	ldrbeq	r7, [r5, #16]
    3714:	f107 37ff 	addeq.w	r7, r7, #4294967295	; 0xffffffff
    3718:	f8d5 c004 	ldr.w	ip, [r5, #4]
    371c:	f1bc 0f00 	cmp.w	ip, #0
    3720:	d008      	beq.n	3734 <execute+0x1f0>
    3722:	46ae      	mov	lr, r5
    3724:	e8be 000f 	ldmia.w	lr!, {r0, r1, r2, r3}
    3728:	ae0c      	add	r6, sp, #48	; 0x30
    372a:	c60f      	stmia	r6!, {r0, r1, r2, r3}
    372c:	f8de 3000 	ldr.w	r3, [lr]
    3730:	6033      	str	r3, [r6, #0]
    3732:	4666      	mov	r6, ip
    3734:	46a9      	mov	r9, r5
    3736:	e003      	b.n	3740 <execute+0x1fc>
    3738:	9b05      	ldr	r3, [sp, #20]
    373a:	b153      	cbz	r3, 3752 <execute+0x20e>
    373c:	2301      	movs	r3, #1
    373e:	9303      	str	r3, [sp, #12]
    3740:	9b06      	ldr	r3, [sp, #24]
    3742:	b917      	cbnz	r7, 374a <execute+0x206>
    3744:	2b02      	cmp	r3, #2
    3746:	f47f af32 	bne.w	35ae <execute+0x6a>
    374a:	9b05      	ldr	r3, [sp, #20]
    374c:	3301      	adds	r3, #1
    374e:	9305      	str	r3, [sp, #20]
    3750:	e72d      	b.n	35ae <execute+0x6a>
    3752:	68a3      	ldr	r3, [r4, #8]
    3754:	69db      	ldr	r3, [r3, #28]
    3756:	b113      	cbz	r3, 375e <execute+0x21a>
    3758:	68db      	ldr	r3, [r3, #12]
    375a:	2b00      	cmp	r3, #0
    375c:	d1ee      	bne.n	373c <execute+0x1f8>
    375e:	4b29      	ldr	r3, [pc, #164]	; (3804 <execute+0x2c0>)
    3760:	9300      	str	r3, [sp, #0]
    3762:	4a29      	ldr	r2, [pc, #164]	; (3808 <execute+0x2c4>)
    3764:	9b11      	ldr	r3, [sp, #68]	; 0x44
    3766:	2101      	movs	r1, #1
    3768:	4620      	mov	r0, r4
    376a:	f007 fb9d 	bl	aea8 <z_shell_fprintf>
    376e:	e7e5      	b.n	373c <execute+0x1f8>
    3770:	7e03      	ldrb	r3, [r0, #24]
    3772:	eba5 050a 	sub.w	r5, r5, sl
    3776:	b1b3      	cbz	r3, 37a6 <execute+0x262>
    3778:	7e41      	ldrb	r1, [r0, #25]
    377a:	f64f 72ff 	movw	r2, #65535	; 0xffff
    377e:	29ff      	cmp	r1, #255	; 0xff
    3780:	bf18      	it	ne
    3782:	460a      	movne	r2, r1
    3784:	429d      	cmp	r5, r3
    3786:	d302      	bcc.n	378e <execute+0x24a>
    3788:	4413      	add	r3, r2
    378a:	429d      	cmp	r5, r3
    378c:	d90b      	bls.n	37a6 <execute+0x262>
    378e:	6883      	ldr	r3, [r0, #8]
    3790:	4a1e      	ldr	r2, [pc, #120]	; (380c <execute+0x2c8>)
    3792:	2101      	movs	r1, #1
    3794:	4620      	mov	r0, r4
    3796:	f007 fb87 	bl	aea8 <z_shell_fprintf>
    379a:	4620      	mov	r0, r4
    379c:	f7ff fe3e 	bl	341c <shell_internal_help_print>
    37a0:	f06f 0515 	mvn.w	r5, #21
    37a4:	e74b      	b.n	363e <execute+0xfa>
    37a6:	f44f 6100 	mov.w	r1, #2048	; 0x800
    37aa:	f500 7019 	add.w	r0, r0, #612	; 0x264
    37ae:	f007 f84f 	bl	a850 <atomic_or>
    37b2:	68a0      	ldr	r0, [r4, #8]
    37b4:	f500 703e 	add.w	r0, r0, #760	; 0x2f8
    37b8:	f007 f8db 	bl	a972 <k_mutex_unlock.isra.0>
    37bc:	68a3      	ldr	r3, [r4, #8]
    37be:	aa11      	add	r2, sp, #68	; 0x44
    37c0:	4629      	mov	r1, r5
    37c2:	eb02 028a 	add.w	r2, r2, sl, lsl #2
    37c6:	695b      	ldr	r3, [r3, #20]
    37c8:	4620      	mov	r0, r4
    37ca:	4798      	blx	r3
    37cc:	4605      	mov	r5, r0
    37ce:	68a0      	ldr	r0, [r4, #8]
    37d0:	f04f 32ff 	mov.w	r2, #4294967295	; 0xffffffff
    37d4:	f04f 33ff 	mov.w	r3, #4294967295	; 0xffffffff
    37d8:	f500 703e 	add.w	r0, r0, #760	; 0x2f8
    37dc:	f007 f87f 	bl	a8de <k_mutex_lock.constprop.0.isra.0>
    37e0:	68a0      	ldr	r0, [r4, #8]
    37e2:	f46f 6100 	mvn.w	r1, #2048	; 0x800
    37e6:	f500 7019 	add.w	r0, r0, #612	; 0x264
    37ea:	f007 f840 	bl	a86e <atomic_and>
    37ee:	e726      	b.n	363e <execute+0xfa>
    37f0:	0000dc7a 	.word	0x0000dc7a
    37f4:	0000dc8e 	.word	0x0000dc8e
    37f8:	0000dcef 	.word	0x0000dcef
    37fc:	0000d8b6 	.word	0x0000d8b6
    3800:	0000dcac 	.word	0x0000dcac
    3804:	0000dcdb 	.word	0x0000dcdb
    3808:	0000df8e 	.word	0x0000df8e
    380c:	0000dd13 	.word	0x0000dd13

00003810 <shell_process>:
    3810:	e92d 4ff0 	stmdb	sp!, {r4, r5, r6, r7, r8, r9, sl, fp, lr}
    3814:	4604      	mov	r4, r0
    3816:	6880      	ldr	r0, [r0, #8]
    3818:	b0b1      	sub	sp, #196	; 0xc4
    381a:	2101      	movs	r1, #1
    381c:	f500 7019 	add.w	r0, r0, #612	; 0x264
    3820:	f007 f816 	bl	a850 <atomic_or>
    3824:	68a3      	ldr	r3, [r4, #8]
    3826:	791b      	ldrb	r3, [r3, #4]
    3828:	2b02      	cmp	r3, #2
    382a:	d117      	bne.n	385c <shell_process+0x4c>
    382c:	2300      	movs	r3, #0
    382e:	9309      	str	r3, [sp, #36]	; 0x24
    3830:	68a3      	ldr	r3, [r4, #8]
    3832:	6860      	ldr	r0, [r4, #4]
    3834:	6b9e      	ldr	r6, [r3, #56]	; 0x38
    3836:	6803      	ldr	r3, [r0, #0]
    3838:	691d      	ldr	r5, [r3, #16]
    383a:	ab09      	add	r3, sp, #36	; 0x24
    383c:	b1c6      	cbz	r6, 3870 <shell_process+0x60>
    383e:	2210      	movs	r2, #16
    3840:	a91b      	add	r1, sp, #108	; 0x6c
    3842:	47a8      	blx	r5
    3844:	9a09      	ldr	r2, [sp, #36]	; 0x24
    3846:	b14a      	cbz	r2, 385c <shell_process+0x4c>
    3848:	a91b      	add	r1, sp, #108	; 0x6c
    384a:	4620      	mov	r0, r4
    384c:	47b0      	blx	r6
    384e:	68a3      	ldr	r3, [r4, #8]
    3850:	6b9b      	ldr	r3, [r3, #56]	; 0x38
    3852:	2b00      	cmp	r3, #0
    3854:	d1ec      	bne.n	3830 <shell_process+0x20>
    3856:	4620      	mov	r0, r4
    3858:	f7ff fe4a 	bl	34f0 <state_set.constprop.0>
    385c:	68a0      	ldr	r0, [r4, #8]
    385e:	f06f 0101 	mvn.w	r1, #1
    3862:	f500 7019 	add.w	r0, r0, #612	; 0x264
    3866:	b031      	add	sp, #196	; 0xc4
    3868:	e8bd 4ff0 	ldmia.w	sp!, {r4, r5, r6, r7, r8, r9, sl, fp, lr}
    386c:	f006 bfff 	b.w	a86e <atomic_and>
    3870:	2201      	movs	r2, #1
    3872:	f10d 0123 	add.w	r1, sp, #35	; 0x23
    3876:	47a8      	blx	r5
    3878:	9b09      	ldr	r3, [sp, #36]	; 0x24
    387a:	2b00      	cmp	r3, #0
    387c:	d0ee      	beq.n	385c <shell_process+0x4c>
    387e:	f99d 1023 	ldrsb.w	r1, [sp, #35]	; 0x23
    3882:	f89d 3023 	ldrb.w	r3, [sp, #35]	; 0x23
    3886:	68a2      	ldr	r2, [r4, #8]
    3888:	2900      	cmp	r1, #0
    388a:	dbd1      	blt.n	3830 <shell_process+0x20>
    388c:	7951      	ldrb	r1, [r2, #5]
    388e:	2903      	cmp	r1, #3
    3890:	f200 830f 	bhi.w	3eb2 <CONFIG_UART_CONSOLE_INPUT_EXPIRED_TIMEOUT+0x41a>
    3894:	e8df f011 	tbh	[pc, r1, lsl #1]
    3898:	028f0004 	.word	0x028f0004
    389c:	030d02a7 	.word	0x030d02a7
    38a0:	2b0d      	cmp	r3, #13
    38a2:	d054      	beq.n	394e <shell_process+0x13e>
    38a4:	2b0a      	cmp	r3, #10
    38a6:	d032      	beq.n	390e <shell_process+0xfe>
    38a8:	f8b2 1264 	ldrh.w	r1, [r2, #612]	; 0x264
    38ac:	f36f 01ca 	bfc	r1, #3, #8
    38b0:	f8a2 1264 	strh.w	r1, [r2, #612]	; 0x264
    38b4:	2b09      	cmp	r3, #9
    38b6:	68a0      	ldr	r0, [r4, #8]
    38b8:	d05c      	beq.n	3974 <shell_process+0x164>
    38ba:	d813      	bhi.n	38e4 <shell_process+0xd4>
    38bc:	2b00      	cmp	r3, #0
    38be:	d0b7      	beq.n	3830 <shell_process+0x20>
    38c0:	2b08      	cmp	r3, #8
    38c2:	f000 81d8 	beq.w	3c76 <CONFIG_UART_CONSOLE_INPUT_EXPIRED_TIMEOUT+0x1de>
    38c6:	1c5a      	adds	r2, r3, #1
    38c8:	4986      	ldr	r1, [pc, #536]	; (3ae4 <CONFIG_UART_CONSOLE_INPUT_EXPIRED_TIMEOUT+0x4c>)
    38ca:	68a0      	ldr	r0, [r4, #8]
    38cc:	b2d2      	uxtb	r2, r2
    38ce:	5c8a      	ldrb	r2, [r1, r2]
    38d0:	f012 0f97 	tst.w	r2, #151	; 0x97
    38d4:	f000 81db 	beq.w	3c8e <CONFIG_UART_CONSOLE_INPUT_EXPIRED_TIMEOUT+0x1f6>
    38d8:	2101      	movs	r1, #1
    38da:	f007 f831 	bl	a940 <z_flag_history_exit_set.isra.0>
    38de:	f89d 1023 	ldrb.w	r1, [sp, #35]	; 0x23
    38e2:	e0f5      	b.n	3ad0 <CONFIG_UART_CONSOLE_INPUT_EXPIRED_TIMEOUT+0x38>
    38e4:	2b1b      	cmp	r3, #27
    38e6:	d042      	beq.n	396e <shell_process+0x15e>
    38e8:	2b7f      	cmp	r3, #127	; 0x7f
    38ea:	d1ec      	bne.n	38c6 <shell_process+0xb6>
    38ec:	f8d0 3260 	ldr.w	r3, [r0, #608]	; 0x260
    38f0:	079d      	lsls	r5, r3, #30
    38f2:	d59d      	bpl.n	3830 <shell_process+0x20>
    38f4:	2101      	movs	r1, #1
    38f6:	f007 f823 	bl	a940 <z_flag_history_exit_set.isra.0>
    38fa:	68a3      	ldr	r3, [r4, #8]
    38fc:	f8d3 3260 	ldr.w	r3, [r3, #608]	; 0x260
    3900:	0719      	lsls	r1, r3, #28
    3902:	f100 81c0 	bmi.w	3c86 <CONFIG_UART_CONSOLE_INPUT_EXPIRED_TIMEOUT+0x1ee>
    3906:	4620      	mov	r0, r4
    3908:	f007 fb10 	bl	af2c <z_shell_op_char_delete>
    390c:	e790      	b.n	3830 <shell_process+0x20>
    390e:	f8d2 1264 	ldr.w	r1, [r2, #612]	; 0x264
    3912:	f3c1 01c7 	ubfx	r1, r1, #3, #8
    3916:	b129      	cbz	r1, 3924 <shell_process+0x114>
    3918:	f8d2 1264 	ldr.w	r1, [r2, #612]	; 0x264
    391c:	f3c1 01c7 	ubfx	r1, r1, #3, #8
    3920:	290a      	cmp	r1, #10
    3922:	d1d0      	bne.n	38c6 <shell_process+0xb6>
    3924:	f8b2 1264 	ldrh.w	r1, [r2, #612]	; 0x264
    3928:	f363 01ca 	bfi	r1, r3, #3, #8
    392c:	f8a2 1264 	strh.w	r1, [r2, #612]	; 0x264
    3930:	68a0      	ldr	r0, [r4, #8]
    3932:	8f81      	ldrh	r1, [r0, #60]	; 0x3c
    3934:	b9b9      	cbnz	r1, 3966 <shell_process+0x156>
    3936:	f007 f803 	bl	a940 <z_flag_history_exit_set.isra.0>
    393a:	68e0      	ldr	r0, [r4, #12]
    393c:	f007 fbb8 	bl	b0b0 <z_shell_history_mode_exit>
    3940:	6960      	ldr	r0, [r4, #20]
    3942:	f7ff fd7b 	bl	343c <z_cursor_next_line_move.isra.0>
    3946:	4620      	mov	r0, r4
    3948:	f7ff fdd2 	bl	34f0 <state_set.constprop.0>
    394c:	e770      	b.n	3830 <shell_process+0x20>
    394e:	f8d2 1264 	ldr.w	r1, [r2, #612]	; 0x264
    3952:	f3c1 01c7 	ubfx	r1, r1, #3, #8
    3956:	2900      	cmp	r1, #0
    3958:	d0e4      	beq.n	3924 <shell_process+0x114>
    395a:	f8d2 1264 	ldr.w	r1, [r2, #612]	; 0x264
    395e:	f3c1 01c7 	ubfx	r1, r1, #3, #8
    3962:	290d      	cmp	r1, #13
    3964:	e7dd      	b.n	3922 <shell_process+0x112>
    3966:	4620      	mov	r0, r4
    3968:	f7ff fdec 	bl	3544 <execute>
    396c:	e7eb      	b.n	3946 <shell_process+0x136>
    396e:	2301      	movs	r3, #1
    3970:	7143      	strb	r3, [r0, #5]
    3972:	e75d      	b.n	3830 <shell_process+0x20>
    3974:	f8d0 3260 	ldr.w	r3, [r0, #608]	; 0x260
    3978:	079a      	lsls	r2, r3, #30
    397a:	f57f af59 	bpl.w	3830 <shell_process+0x20>
    397e:	2101      	movs	r1, #1
    3980:	f006 ffde 	bl	a940 <z_flag_history_exit_set.isra.0>
    3984:	68a0      	ldr	r0, [r4, #8]
    3986:	8f83      	ldrh	r3, [r0, #60]	; 0x3c
    3988:	2bff      	cmp	r3, #255	; 0xff
    398a:	f43f af51 	beq.w	3830 <shell_process+0x20>
    398e:	8fc2      	ldrh	r2, [r0, #62]	; 0x3e
    3990:	f100 0142 	add.w	r1, r0, #66	; 0x42
    3994:	f500 70a1 	add.w	r0, r0, #322	; 0x142
    3998:	f008 fbc0 	bl	c11c <memcpy>
    399c:	68a3      	ldr	r3, [r4, #8]
    399e:	8fda      	ldrh	r2, [r3, #62]	; 0x3e
    39a0:	4413      	add	r3, r2
    39a2:	2500      	movs	r5, #0
    39a4:	f883 5142 	strb.w	r5, [r3, #322]	; 0x142
    39a8:	68a2      	ldr	r2, [r4, #8]
    39aa:	a91b      	add	r1, sp, #108	; 0x6c
    39ac:	2314      	movs	r3, #20
    39ae:	f502 72a1 	add.w	r2, r2, #322	; 0x142
    39b2:	a80b      	add	r0, sp, #44	; 0x2c
    39b4:	f000 fc32 	bl	421c <z_shell_make_argv>
    39b8:	990b      	ldr	r1, [sp, #44]	; 0x2c
    39ba:	2914      	cmp	r1, #20
    39bc:	f63f af38 	bhi.w	3830 <shell_process+0x20>
    39c0:	ab30      	add	r3, sp, #192	; 0xc0
    39c2:	eb03 0381 	add.w	r3, r3, r1, lsl #2
    39c6:	f8df a120 	ldr.w	sl, [pc, #288]	; 3ae8 <CONFIG_UART_CONSOLE_INPUT_EXPIRED_TIMEOUT+0x50>
    39ca:	f843 5c54 	str.w	r5, [r3, #-84]
    39ce:	68a3      	ldr	r3, [r4, #8]
    39d0:	8fda      	ldrh	r2, [r3, #62]	; 0x3e
    39d2:	4413      	add	r3, r2
    39d4:	f893 3041 	ldrb.w	r3, [r3, #65]	; 0x41
    39d8:	f81a 3003 	ldrb.w	r3, [sl, r3]
    39dc:	b119      	cbz	r1, 39e6 <shell_process+0x1d6>
    39de:	071b      	lsls	r3, r3, #28
    39e0:	d451      	bmi.n	3a86 <shell_process+0x276>
    39e2:	2901      	cmp	r1, #1
    39e4:	d14e      	bne.n	3a84 <shell_process+0x274>
    39e6:	2500      	movs	r5, #0
    39e8:	950a      	str	r5, [sp, #40]	; 0x28
    39ea:	9b0a      	ldr	r3, [sp, #40]	; 0x28
    39ec:	aa30      	add	r2, sp, #192	; 0xc0
    39ee:	eb02 0383 	add.w	r3, r2, r3, lsl #2
    39f2:	2600      	movs	r6, #0
    39f4:	f853 bc54 	ldr.w	fp, [r3, #-84]
    39f8:	4658      	mov	r0, fp
    39fa:	f006 ff5d 	bl	a8b8 <z_shell_strlen>
    39fe:	4637      	mov	r7, r6
    3a00:	9002      	str	r0, [sp, #8]
    3a02:	9603      	str	r6, [sp, #12]
    3a04:	46b0      	mov	r8, r6
    3a06:	aa16      	add	r2, sp, #88	; 0x58
    3a08:	4641      	mov	r1, r8
    3a0a:	4628      	mov	r0, r5
    3a0c:	f000 fce2 	bl	43d4 <z_shell_cmd_get>
    3a10:	4681      	mov	r9, r0
    3a12:	2800      	cmp	r0, #0
    3a14:	d143      	bne.n	3a9e <CONFIG_UART_CONSOLE_INPUT_EXPIRED_TIMEOUT+0x6>
    3a16:	2e01      	cmp	r6, #1
    3a18:	d168      	bne.n	3aec <CONFIG_UART_CONSOLE_INPUT_EXPIRED_TIMEOUT+0x54>
    3a1a:	9b0a      	ldr	r3, [sp, #40]	; 0x28
    3a1c:	aa30      	add	r2, sp, #192	; 0xc0
    3a1e:	eb02 0383 	add.w	r3, r2, r3, lsl #2
    3a22:	f853 0c54 	ldr.w	r0, [r3, #-84]
    3a26:	f006 ff47 	bl	a8b8 <z_shell_strlen>
    3a2a:	68a2      	ldr	r2, [r4, #8]
    3a2c:	4606      	mov	r6, r0
    3a2e:	3208      	adds	r2, #8
    3a30:	4639      	mov	r1, r7
    3a32:	4628      	mov	r0, r5
    3a34:	f000 fcce 	bl	43d4 <z_shell_cmd_get>
    3a38:	4605      	mov	r5, r0
    3a3a:	6800      	ldr	r0, [r0, #0]
    3a3c:	f006 ff3c 	bl	a8b8 <z_shell_strlen>
    3a40:	4286      	cmp	r6, r0
    3a42:	d006      	beq.n	3a52 <shell_process+0x242>
    3a44:	6829      	ldr	r1, [r5, #0]
    3a46:	1b82      	subs	r2, r0, r6
    3a48:	b292      	uxth	r2, r2
    3a4a:	4431      	add	r1, r6
    3a4c:	4620      	mov	r0, r4
    3a4e:	f007 fa6b 	bl	af28 <z_shell_op_completion_insert>
    3a52:	68a0      	ldr	r0, [r4, #8]
    3a54:	8fc3      	ldrh	r3, [r0, #62]	; 0x3e
    3a56:	4403      	add	r3, r0
    3a58:	f893 3042 	ldrb.w	r3, [r3, #66]	; 0x42
    3a5c:	f81a 1003 	ldrb.w	r1, [sl, r3]
    3a60:	f011 0108 	ands.w	r1, r1, #8
    3a64:	d138      	bne.n	3ad8 <CONFIG_UART_CONSOLE_INPUT_EXPIRED_TIMEOUT+0x40>
    3a66:	f8d0 3260 	ldr.w	r3, [r0, #608]	; 0x260
    3a6a:	07df      	lsls	r7, r3, #31
    3a6c:	d52f      	bpl.n	3ace <CONFIG_UART_CONSOLE_INPUT_EXPIRED_TIMEOUT+0x36>
    3a6e:	f006 ff71 	bl	a954 <z_flag_insert_mode_set.isra.0>
    3a72:	2120      	movs	r1, #32
    3a74:	4620      	mov	r0, r4
    3a76:	f000 feaf 	bl	47d8 <z_shell_op_char_insert>
    3a7a:	68a0      	ldr	r0, [r4, #8]
    3a7c:	2101      	movs	r1, #1
    3a7e:	f006 ff69 	bl	a954 <z_flag_insert_mode_set.isra.0>
    3a82:	e6d5      	b.n	3830 <shell_process+0x20>
    3a84:	3901      	subs	r1, #1
    3a86:	2000      	movs	r0, #0
    3a88:	ab0c      	add	r3, sp, #48	; 0x30
    3a8a:	9300      	str	r3, [sp, #0]
    3a8c:	9001      	str	r0, [sp, #4]
    3a8e:	ab0a      	add	r3, sp, #40	; 0x28
    3a90:	aa1b      	add	r2, sp, #108	; 0x6c
    3a92:	f007 f86f 	bl	ab74 <z_shell_get_last_command>
    3a96:	4605      	mov	r5, r0
    3a98:	2800      	cmp	r0, #0
    3a9a:	d1a6      	bne.n	39ea <shell_process+0x1da>
    3a9c:	e6c8      	b.n	3830 <shell_process+0x20>
    3a9e:	9a02      	ldr	r2, [sp, #8]
    3aa0:	f8d9 0000 	ldr.w	r0, [r9]
    3aa4:	4659      	mov	r1, fp
    3aa6:	f008 fbb1 	bl	c20c <strncmp>
    3aaa:	b968      	cbnz	r0, 3ac8 <CONFIG_UART_CONSOLE_INPUT_EXPIRED_TIMEOUT+0x30>
    3aac:	f8d9 0000 	ldr.w	r0, [r9]
    3ab0:	f7fe f804 	bl	1abc <strlen>
    3ab4:	9b03      	ldr	r3, [sp, #12]
    3ab6:	4283      	cmp	r3, r0
    3ab8:	bf38      	it	cc
    3aba:	4603      	movcc	r3, r0
    3abc:	b29b      	uxth	r3, r3
    3abe:	2e00      	cmp	r6, #0
    3ac0:	bf08      	it	eq
    3ac2:	4647      	moveq	r7, r8
    3ac4:	9303      	str	r3, [sp, #12]
    3ac6:	3601      	adds	r6, #1
    3ac8:	f108 0801 	add.w	r8, r8, #1
    3acc:	e79b      	b.n	3a06 <shell_process+0x1f6>
    3ace:	2120      	movs	r1, #32
    3ad0:	4620      	mov	r0, r4
    3ad2:	f000 fe81 	bl	47d8 <z_shell_op_char_insert>
    3ad6:	e6ab      	b.n	3830 <shell_process+0x20>
    3ad8:	2101      	movs	r1, #1
    3ada:	4620      	mov	r0, r4
    3adc:	f007 f912 	bl	ad04 <z_shell_op_cursor_move>
    3ae0:	e6a6      	b.n	3830 <shell_process+0x20>
    3ae2:	bf00      	nop
    3ae4:	0000e694 	.word	0x0000e694
    3ae8:	0000e695 	.word	0x0000e695
    3aec:	f67f aea0 	bls.w	3830 <shell_process+0x20>
    3af0:	9a0a      	ldr	r2, [sp, #40]	; 0x28
    3af2:	ab30      	add	r3, sp, #192	; 0xc0
    3af4:	eb03 0282 	add.w	r2, r3, r2, lsl #2
    3af8:	46ba      	mov	sl, r7
    3afa:	f852 3c54 	ldr.w	r3, [r2, #-84]
    3afe:	9302      	str	r3, [sp, #8]
    3b00:	4618      	mov	r0, r3
    3b02:	f006 fed9 	bl	a8b8 <z_shell_strlen>
    3b06:	68a2      	ldr	r2, [r4, #8]
    3b08:	9005      	str	r0, [sp, #20]
    3b0a:	f8a2 9030 	strh.w	r9, [r2, #48]	; 0x30
    3b0e:	9604      	str	r6, [sp, #16]
    3b10:	68a2      	ldr	r2, [r4, #8]
    3b12:	4651      	mov	r1, sl
    3b14:	3208      	adds	r2, #8
    3b16:	4628      	mov	r0, r5
    3b18:	f000 fc5c 	bl	43d4 <z_shell_cmd_get>
    3b1c:	9b02      	ldr	r3, [sp, #8]
    3b1e:	4680      	mov	r8, r0
    3b20:	f10a 0a01 	add.w	sl, sl, #1
    3b24:	2b00      	cmp	r3, #0
    3b26:	d152      	bne.n	3bce <CONFIG_UART_CONSOLE_INPUT_EXPIRED_TIMEOUT+0x136>
    3b28:	f8d8 3000 	ldr.w	r3, [r8]
    3b2c:	2b00      	cmp	r3, #0
    3b2e:	d158      	bne.n	3be2 <CONFIG_UART_CONSOLE_INPUT_EXPIRED_TIMEOUT+0x14a>
    3b30:	68a2      	ldr	r2, [r4, #8]
    3b32:	8613      	strh	r3, [r2, #48]	; 0x30
    3b34:	9b04      	ldr	r3, [sp, #16]
    3b36:	3b01      	subs	r3, #1
    3b38:	9304      	str	r3, [sp, #16]
    3b3a:	d1e9      	bne.n	3b10 <CONFIG_UART_CONSOLE_INPUT_EXPIRED_TIMEOUT+0x78>
    3b3c:	6960      	ldr	r0, [r4, #20]
    3b3e:	f7ff fc7d 	bl	343c <z_cursor_next_line_move.isra.0>
    3b42:	4620      	mov	r0, r4
    3b44:	f000 fe7e 	bl	4844 <z_shell_print_prompt_and_cmd>
    3b48:	9b0a      	ldr	r3, [sp, #40]	; 0x28
    3b4a:	aa30      	add	r2, sp, #192	; 0xc0
    3b4c:	eb02 0383 	add.w	r3, r2, r3, lsl #2
    3b50:	f107 0901 	add.w	r9, r7, #1
    3b54:	f853 0c54 	ldr.w	r0, [r3, #-84]
    3b58:	f006 feae 	bl	a8b8 <z_shell_strlen>
    3b5c:	4639      	mov	r1, r7
    3b5e:	aa11      	add	r2, sp, #68	; 0x44
    3b60:	4680      	mov	r8, r0
    3b62:	4628      	mov	r0, r5
    3b64:	f000 fc36 	bl	43d4 <z_shell_cmd_get>
    3b68:	4607      	mov	r7, r0
    3b6a:	68a0      	ldr	r0, [r4, #8]
    3b6c:	6839      	ldr	r1, [r7, #0]
    3b6e:	22ff      	movs	r2, #255	; 0xff
    3b70:	f500 70a1 	add.w	r0, r0, #322	; 0x142
    3b74:	f008 fb5c 	bl	c230 <strncpy>
    3b78:	683b      	ldr	r3, [r7, #0]
    3b7a:	9302      	str	r3, [sp, #8]
    3b7c:	f64f 77ff 	movw	r7, #65535	; 0xffff
    3b80:	46ba      	mov	sl, r7
    3b82:	aa16      	add	r2, sp, #88	; 0x58
    3b84:	4649      	mov	r1, r9
    3b86:	4628      	mov	r0, r5
    3b88:	f109 0b01 	add.w	fp, r9, #1
    3b8c:	f000 fc22 	bl	43d4 <z_shell_cmd_get>
    3b90:	2800      	cmp	r0, #0
    3b92:	d064      	beq.n	3c5e <CONFIG_UART_CONSOLE_INPUT_EXPIRED_TIMEOUT+0x1c6>
    3b94:	68a1      	ldr	r1, [r4, #8]
    3b96:	6803      	ldr	r3, [r0, #0]
    3b98:	f201 1141 	addw	r1, r1, #321	; 0x141
    3b9c:	2200      	movs	r2, #0
    3b9e:	f811 ef01 	ldrb.w	lr, [r1, #1]!
    3ba2:	5c98      	ldrb	r0, [r3, r2]
    3ba4:	4570      	cmp	r0, lr
    3ba6:	d103      	bne.n	3bb0 <CONFIG_UART_CONSOLE_INPUT_EXPIRED_TIMEOUT+0x118>
    3ba8:	b110      	cbz	r0, 3bb0 <CONFIG_UART_CONSOLE_INPUT_EXPIRED_TIMEOUT+0x118>
    3baa:	3201      	adds	r2, #1
    3bac:	4552      	cmp	r2, sl
    3bae:	d1f6      	bne.n	3b9e <CONFIG_UART_CONSOLE_INPUT_EXPIRED_TIMEOUT+0x106>
    3bb0:	f1b8 0f00 	cmp.w	r8, #0
    3bb4:	d001      	beq.n	3bba <CONFIG_UART_CONSOLE_INPUT_EXPIRED_TIMEOUT+0x122>
    3bb6:	4542      	cmp	r2, r8
    3bb8:	db07      	blt.n	3bca <CONFIG_UART_CONSOLE_INPUT_EXPIRED_TIMEOUT+0x132>
    3bba:	42ba      	cmp	r2, r7
    3bbc:	f106 36ff 	add.w	r6, r6, #4294967295	; 0xffffffff
    3bc0:	bfa8      	it	ge
    3bc2:	463a      	movge	r2, r7
    3bc4:	2e01      	cmp	r6, #1
    3bc6:	b297      	uxth	r7, r2
    3bc8:	d049      	beq.n	3c5e <CONFIG_UART_CONSOLE_INPUT_EXPIRED_TIMEOUT+0x1c6>
    3bca:	46d9      	mov	r9, fp
    3bcc:	e7d9      	b.n	3b82 <CONFIG_UART_CONSOLE_INPUT_EXPIRED_TIMEOUT+0xea>
    3bce:	6800      	ldr	r0, [r0, #0]
    3bd0:	2800      	cmp	r0, #0
    3bd2:	d0a9      	beq.n	3b28 <CONFIG_UART_CONSOLE_INPUT_EXPIRED_TIMEOUT+0x90>
    3bd4:	9a05      	ldr	r2, [sp, #20]
    3bd6:	9902      	ldr	r1, [sp, #8]
    3bd8:	f008 fb18 	bl	c20c <strncmp>
    3bdc:	2800      	cmp	r0, #0
    3bde:	d0a3      	beq.n	3b28 <CONFIG_UART_CONSOLE_INPUT_EXPIRED_TIMEOUT+0x90>
    3be0:	e796      	b.n	3b10 <CONFIG_UART_CONSOLE_INPUT_EXPIRED_TIMEOUT+0x78>
    3be2:	48b5      	ldr	r0, [pc, #724]	; (3eb8 <CONFIG_UART_CONSOLE_INPUT_EXPIRED_TIMEOUT+0x420>)
    3be4:	9306      	str	r3, [sp, #24]
    3be6:	f006 fe67 	bl	a8b8 <z_shell_strlen>
    3bea:	9b03      	ldr	r3, [sp, #12]
    3bec:	68a2      	ldr	r2, [r4, #8]
    3bee:	eb00 0b03 	add.w	fp, r0, r3
    3bf2:	48b1      	ldr	r0, [pc, #708]	; (3eb8 <CONFIG_UART_CONSOLE_INPUT_EXPIRED_TIMEOUT+0x420>)
    3bf4:	f8b2 802a 	ldrh.w	r8, [r2, #42]	; 0x2a
    3bf8:	f006 fe5e 	bl	a8b8 <z_shell_strlen>
    3bfc:	9b06      	ldr	r3, [sp, #24]
    3bfe:	9007      	str	r0, [sp, #28]
    3c00:	4618      	mov	r0, r3
    3c02:	f006 fe59 	bl	a8b8 <z_shell_strlen>
    3c06:	fa1f fb8b 	uxth.w	fp, fp
    3c0a:	ebab 0900 	sub.w	r9, fp, r0
    3c0e:	68a0      	ldr	r0, [r4, #8]
    3c10:	9a07      	ldr	r2, [sp, #28]
    3c12:	8e01      	ldrh	r1, [r0, #48]	; 0x30
    3c14:	9b06      	ldr	r3, [sp, #24]
    3c16:	eba8 0802 	sub.w	r8, r8, r2
    3c1a:	fb98 f8fb 	sdiv	r8, r8, fp
    3c1e:	fa1f f888 	uxth.w	r8, r8
    3c22:	f101 0c01 	add.w	ip, r1, #1
    3c26:	fbb1 f2f8 	udiv	r2, r1, r8
    3c2a:	fb08 1112 	mls	r1, r8, r2, r1
    3c2e:	b289      	uxth	r1, r1
    3c30:	fa1f f989 	uxth.w	r9, r9
    3c34:	f8a0 c030 	strh.w	ip, [r0, #48]	; 0x30
    3c38:	b959      	cbnz	r1, 3c52 <CONFIG_UART_CONSOLE_INPUT_EXPIRED_TIMEOUT+0x1ba>
    3c3a:	9300      	str	r3, [sp, #0]
    3c3c:	4a9f      	ldr	r2, [pc, #636]	; (3ebc <CONFIG_UART_CONSOLE_INPUT_EXPIRED_TIMEOUT+0x424>)
    3c3e:	4b9e      	ldr	r3, [pc, #632]	; (3eb8 <CONFIG_UART_CONSOLE_INPUT_EXPIRED_TIMEOUT+0x420>)
    3c40:	2106      	movs	r1, #6
    3c42:	4620      	mov	r0, r4
    3c44:	f007 f930 	bl	aea8 <z_shell_fprintf>
    3c48:	4649      	mov	r1, r9
    3c4a:	4620      	mov	r0, r4
    3c4c:	f000 fc92 	bl	4574 <z_shell_op_cursor_horiz_move>
    3c50:	e770      	b.n	3b34 <CONFIG_UART_CONSOLE_INPUT_EXPIRED_TIMEOUT+0x9c>
    3c52:	4a9b      	ldr	r2, [pc, #620]	; (3ec0 <CONFIG_UART_CONSOLE_INPUT_EXPIRED_TIMEOUT+0x428>)
    3c54:	2106      	movs	r1, #6
    3c56:	4620      	mov	r0, r4
    3c58:	f007 f926 	bl	aea8 <z_shell_fprintf>
    3c5c:	e7f4      	b.n	3c48 <CONFIG_UART_CONSOLE_INPUT_EXPIRED_TIMEOUT+0x1b0>
    3c5e:	2f00      	cmp	r7, #0
    3c60:	f43f ade6 	beq.w	3830 <shell_process+0x20>
    3c64:	9902      	ldr	r1, [sp, #8]
    3c66:	eba7 0208 	sub.w	r2, r7, r8
    3c6a:	b292      	uxth	r2, r2
    3c6c:	4441      	add	r1, r8
    3c6e:	4620      	mov	r0, r4
    3c70:	f007 f95a 	bl	af28 <z_shell_op_completion_insert>
    3c74:	e5dc      	b.n	3830 <shell_process+0x20>
    3c76:	f8d0 3260 	ldr.w	r3, [r0, #608]	; 0x260
    3c7a:	079e      	lsls	r6, r3, #30
    3c7c:	f57f add8 	bpl.w	3830 <shell_process+0x20>
    3c80:	2101      	movs	r1, #1
    3c82:	f006 fe5d 	bl	a940 <z_flag_history_exit_set.isra.0>
    3c86:	4620      	mov	r0, r4
    3c88:	f007 f96b 	bl	af62 <z_shell_op_char_backspace>
    3c8c:	e5d0      	b.n	3830 <shell_process+0x20>
    3c8e:	f8d0 2260 	ldr.w	r2, [r0, #608]	; 0x260
    3c92:	0792      	lsls	r2, r2, #30
    3c94:	f57f adcc 	bpl.w	3830 <shell_process+0x20>
    3c98:	3b01      	subs	r3, #1
    3c9a:	2b16      	cmp	r3, #22
    3c9c:	f63f adc8 	bhi.w	3830 <shell_process+0x20>
    3ca0:	a201      	add	r2, pc, #4	; (adr r2, 3ca8 <CONFIG_UART_CONSOLE_INPUT_EXPIRED_TIMEOUT+0x210>)
    3ca2:	f852 f023 	ldr.w	pc, [r2, r3, lsl #2]
    3ca6:	bf00      	nop
    3ca8:	00003e85 	.word	0x00003e85
    3cac:	00003d05 	.word	0x00003d05
    3cb0:	00003d0d 	.word	0x00003d0d
    3cb4:	00003907 	.word	0x00003907
    3cb8:	00003e79 	.word	0x00003e79
    3cbc:	00003d2b 	.word	0x00003d2b
    3cc0:	00003831 	.word	0x00003831
    3cc4:	00003831 	.word	0x00003831
    3cc8:	00003831 	.word	0x00003831
    3ccc:	00003831 	.word	0x00003831
    3cd0:	00003d33 	.word	0x00003d33
    3cd4:	00003d3b 	.word	0x00003d3b
    3cd8:	00003831 	.word	0x00003831
    3cdc:	00003d65 	.word	0x00003d65
    3ce0:	00003831 	.word	0x00003831
    3ce4:	00003d6f 	.word	0x00003d6f
    3ce8:	00003831 	.word	0x00003831
    3cec:	00003831 	.word	0x00003831
    3cf0:	00003831 	.word	0x00003831
    3cf4:	00003831 	.word	0x00003831
    3cf8:	00003d73 	.word	0x00003d73
    3cfc:	00003831 	.word	0x00003831
    3d00:	00003da7 	.word	0x00003da7
    3d04:	4620      	mov	r0, r4
    3d06:	f007 f82e 	bl	ad66 <z_shell_op_left_arrow>
    3d0a:	e591      	b.n	3830 <shell_process+0x20>
    3d0c:	4620      	mov	r0, r4
    3d0e:	f007 f823 	bl	ad58 <z_shell_op_cursor_end_move>
    3d12:	4620      	mov	r0, r4
    3d14:	f006 ffaa 	bl	ac6c <z_shell_cursor_in_empty_line>
    3d18:	b910      	cbnz	r0, 3d20 <CONFIG_UART_CONSOLE_INPUT_EXPIRED_TIMEOUT+0x288>
    3d1a:	6960      	ldr	r0, [r4, #20]
    3d1c:	f7ff fb8e 	bl	343c <z_cursor_next_line_move.isra.0>
    3d20:	68a0      	ldr	r0, [r4, #8]
    3d22:	2101      	movs	r1, #1
    3d24:	f006 fe0c 	bl	a940 <z_flag_history_exit_set.isra.0>
    3d28:	e60d      	b.n	3946 <shell_process+0x136>
    3d2a:	4620      	mov	r0, r4
    3d2c:	f007 f823 	bl	ad76 <z_shell_op_right_arrow>
    3d30:	e57e      	b.n	3830 <shell_process+0x20>
    3d32:	4620      	mov	r0, r4
    3d34:	f007 f828 	bl	ad88 <z_shell_op_delete_from_cursor>
    3d38:	e57a      	b.n	3830 <shell_process+0x20>
    3d3a:	f8d0 3260 	ldr.w	r3, [r0, #608]	; 0x260
    3d3e:	069f      	lsls	r7, r3, #26
    3d40:	d503      	bpl.n	3d4a <CONFIG_UART_CONSOLE_INPUT_EXPIRED_TIMEOUT+0x2b2>
    3d42:	4960      	ldr	r1, [pc, #384]	; (3ec4 <CONFIG_UART_CONSOLE_INPUT_EXPIRED_TIMEOUT+0x42c>)
    3d44:	6960      	ldr	r0, [r4, #20]
    3d46:	f006 fdbd 	bl	a8c4 <z_shell_raw_fprintf>
    3d4a:	68a3      	ldr	r3, [r4, #8]
    3d4c:	f8d3 3260 	ldr.w	r3, [r3, #608]	; 0x260
    3d50:	069e      	lsls	r6, r3, #26
    3d52:	d503      	bpl.n	3d5c <CONFIG_UART_CONSOLE_INPUT_EXPIRED_TIMEOUT+0x2c4>
    3d54:	495c      	ldr	r1, [pc, #368]	; (3ec8 <CONFIG_UART_CONSOLE_INPUT_EXPIRED_TIMEOUT+0x430>)
    3d56:	6960      	ldr	r0, [r4, #20]
    3d58:	f006 fdb4 	bl	a8c4 <z_shell_raw_fprintf>
    3d5c:	4620      	mov	r0, r4
    3d5e:	f000 fd71 	bl	4844 <z_shell_print_prompt_and_cmd>
    3d62:	e565      	b.n	3830 <shell_process+0x20>
    3d64:	2100      	movs	r1, #0
    3d66:	4620      	mov	r0, r4
    3d68:	f7ff fb6e 	bl	3448 <history_handle>
    3d6c:	e560      	b.n	3830 <shell_process+0x20>
    3d6e:	2101      	movs	r1, #1
    3d70:	e7f9      	b.n	3d66 <CONFIG_UART_CONSOLE_INPUT_EXPIRED_TIMEOUT+0x2ce>
    3d72:	4620      	mov	r0, r4
    3d74:	f006 ffea 	bl	ad4c <z_shell_op_cursor_home_move>
    3d78:	68a2      	ldr	r2, [r4, #8]
    3d7a:	2300      	movs	r3, #0
    3d7c:	f882 3042 	strb.w	r3, [r2, #66]	; 0x42
    3d80:	68a2      	ldr	r2, [r4, #8]
    3d82:	87d3      	strh	r3, [r2, #62]	; 0x3e
    3d84:	68a2      	ldr	r2, [r4, #8]
    3d86:	8793      	strh	r3, [r2, #60]	; 0x3c
    3d88:	68a0      	ldr	r0, [r4, #8]
    3d8a:	2101      	movs	r1, #1
    3d8c:	f006 fdd8 	bl	a940 <z_flag_history_exit_set.isra.0>
    3d90:	68a3      	ldr	r3, [r4, #8]
    3d92:	f8d3 3260 	ldr.w	r3, [r3, #608]	; 0x260
    3d96:	069d      	lsls	r5, r3, #26
    3d98:	f57f ad4a 	bpl.w	3830 <shell_process+0x20>
    3d9c:	494b      	ldr	r1, [pc, #300]	; (3ecc <CONFIG_UART_CONSOLE_INPUT_EXPIRED_TIMEOUT+0x434>)
    3d9e:	6960      	ldr	r0, [r4, #20]
    3da0:	f006 fd90 	bl	a8c4 <z_shell_raw_fprintf>
    3da4:	e544      	b.n	3830 <shell_process+0x20>
    3da6:	4620      	mov	r0, r4
    3da8:	f000 fc7c 	bl	46a4 <z_shell_op_word_remove>
    3dac:	68a0      	ldr	r0, [r4, #8]
